
quadcopter.elf:     file format elf32-avr

Sections:
Idx Name          Size      VMA       LMA       File off  Algn
  0 .data         00000010  00800100  000025fe  00002692  2**0
                  CONTENTS, ALLOC, LOAD, DATA
  1 .text         000025fe  00000000  00000000  00000094  2**1
                  CONTENTS, ALLOC, LOAD, READONLY, CODE
  2 .bss          000000da  00800110  00800110  000026a2  2**0
                  ALLOC
  3 .comment      00000030  00000000  00000000  000026a2  2**0
                  CONTENTS, READONLY
  4 .debug_aranges 00000220  00000000  00000000  000026d2  2**0
                  CONTENTS, READONLY, DEBUGGING
  5 .debug_info   00002708  00000000  00000000  000028f2  2**0
                  CONTENTS, READONLY, DEBUGGING
  6 .debug_abbrev 00000964  00000000  00000000  00004ffa  2**0
                  CONTENTS, READONLY, DEBUGGING
  7 .debug_line   00000b0e  00000000  00000000  0000595e  2**0
                  CONTENTS, READONLY, DEBUGGING
  8 .debug_frame  000007f4  00000000  00000000  0000646c  2**2
                  CONTENTS, READONLY, DEBUGGING
  9 .debug_str    000007a3  00000000  00000000  00006c60  2**0
                  CONTENTS, READONLY, DEBUGGING
 10 .debug_loc    00002479  00000000  00000000  00007403  2**0
                  CONTENTS, READONLY, DEBUGGING
 11 .debug_ranges 000001c0  00000000  00000000  0000987c  2**0
                  CONTENTS, READONLY, DEBUGGING

Disassembly of section .text:

00000000 <__vectors>:
       0:	0c 94 e6 00 	jmp	0x1cc	; 0x1cc <__ctors_end>
       4:	0c 94 03 01 	jmp	0x206	; 0x206 <__bad_interrupt>
       8:	0c 94 03 01 	jmp	0x206	; 0x206 <__bad_interrupt>
       c:	0c 94 03 01 	jmp	0x206	; 0x206 <__bad_interrupt>
      10:	0c 94 03 01 	jmp	0x206	; 0x206 <__bad_interrupt>
      14:	0c 94 03 01 	jmp	0x206	; 0x206 <__bad_interrupt>
      18:	0c 94 03 01 	jmp	0x206	; 0x206 <__bad_interrupt>
      1c:	0c 94 03 01 	jmp	0x206	; 0x206 <__bad_interrupt>
      20:	0c 94 03 01 	jmp	0x206	; 0x206 <__bad_interrupt>
      24:	0c 94 03 01 	jmp	0x206	; 0x206 <__bad_interrupt>
      28:	0c 94 03 01 	jmp	0x206	; 0x206 <__bad_interrupt>
      2c:	0c 94 03 01 	jmp	0x206	; 0x206 <__bad_interrupt>
      30:	0c 94 03 01 	jmp	0x206	; 0x206 <__bad_interrupt>
      34:	0c 94 03 01 	jmp	0x206	; 0x206 <__bad_interrupt>
      38:	0c 94 03 01 	jmp	0x206	; 0x206 <__bad_interrupt>
      3c:	0c 94 03 01 	jmp	0x206	; 0x206 <__bad_interrupt>
      40:	0c 94 ac 0a 	jmp	0x1558	; 0x1558 <__vector_16>
      44:	0c 94 03 01 	jmp	0x206	; 0x206 <__bad_interrupt>
      48:	0c 94 b2 0c 	jmp	0x1964	; 0x1964 <__vector_18>
      4c:	0c 94 dd 0c 	jmp	0x19ba	; 0x19ba <__vector_19>
      50:	0c 94 03 01 	jmp	0x206	; 0x206 <__bad_interrupt>
      54:	0c 94 03 01 	jmp	0x206	; 0x206 <__bad_interrupt>
      58:	0c 94 03 01 	jmp	0x206	; 0x206 <__bad_interrupt>
      5c:	0c 94 03 01 	jmp	0x206	; 0x206 <__bad_interrupt>
      60:	0c 94 03 01 	jmp	0x206	; 0x206 <__bad_interrupt>
      64:	0c 94 03 01 	jmp	0x206	; 0x206 <__bad_interrupt>
      68:	03 6e       	ori	r16, 0xE3	; 227
      6a:	db 36       	cpi	r29, 0x6B	; 107
      6c:	3d 9a       	sbi	0x07, 5	; 7
      6e:	99 99       	sbic	0x13, 1	; 19
      70:	99 3d       	cpi	r25, 0xD9	; 217
      72:	ab aa       	std	Y+51, r10	; 0x33
      74:	aa 2a       	or	r10, r26
      76:	3e 00       	.word	0x003e	; ????
      78:	00 00       	nop
      7a:	80 3f       	cpi	r24, 0xF0	; 240
      7c:	08 4a       	sbci	r16, 0xA8	; 168
      7e:	d7 3b       	cpi	r29, 0xB7	; 183
      80:	3b ce       	rjmp	.-906    	; 0xfffffcf8 <__eeprom_end+0xff7efcf8>
      82:	01 6e       	ori	r16, 0xE1	; 225
      84:	84 bc       	out	0x24, r8	; 36
      86:	bf fd       	.word	0xfdbf	; ????
      88:	c1 2f       	mov	r28, r17
      8a:	3d 6c       	ori	r19, 0xCD	; 205
      8c:	74 31       	cpi	r23, 0x14	; 20
      8e:	9a bd       	out	0x2a, r25	; 42
      90:	56 83       	std	Z+6, r21	; 0x06
      92:	3d da       	rcall	.-2950   	; 0xfffff50e <__eeprom_end+0xff7ef50e>
      94:	3d 00       	.word	0x003d	; ????
      96:	c7 7f       	andi	r28, 0xF7	; 247
      98:	11 be       	out	0x31, r1	; 49
      9a:	d9 e4       	ldi	r29, 0x49	; 73
      9c:	bb 4c       	sbci	r27, 0xCB	; 203
      9e:	3e 91       	ld	r19, -X
      a0:	6b aa       	std	Y+51, r6	; 0x33
      a2:	aa be       	out	0x3a, r10	; 58
      a4:	00 00       	nop
      a6:	00 80       	ld	r0, Z
      a8:	3f 07       	cpc	r19, r31
      aa:	2c 7a       	andi	r18, 0xAC	; 172
      ac:	a5 ba       	out	0x15, r10	; 21
      ae:	6c c5       	rjmp	.+2776   	; 0xb88 <mpu6050_mahonyUpdate+0x154>
      b0:	90 da       	rcall	.-2784   	; 0xfffff5d2 <__eeprom_end+0xff7ef5d2>
      b2:	3b 93       	.word	0x933b	; ????
      b4:	65 fc       	sbrc	r6, 5
      b6:	8b bc       	out	0x2b, r8	; 43
      b8:	53 f8       	bld	r5, 3
      ba:	10 fd       	sbrc	r17, 0
      bc:	3c 56       	subi	r19, 0x6C	; 108
      be:	92 83       	std	Z+2, r25	; 0x02
      c0:	4d bd       	out	0x2d, r20	; 45
      c2:	87 9d       	mul	r24, r7
      c4:	3a b6       	in	r3, 0x3a	; 58
      c6:	3d cb       	rjmp	.-2438   	; 0xfffff742 <__eeprom_end+0xff7ef742>
      c8:	c9 bf       	out	0x39, r28	; 57
      ca:	5b be       	out	0x3b, r5	; 59
      cc:	73 da       	rcall	.-2842   	; 0xfffff5b4 <__eeprom_end+0xff7ef5b4>
      ce:	0f c9       	rjmp	.-3554   	; 0xfffff2ee <__eeprom_end+0xff7ef2ee>
      d0:	3f 00       	.word	0x003f	; ????

000000d2 <__trampolines_end>:
      d2:	00 40       	sbci	r16, 0x00	; 0
      d4:	7a 10       	cpse	r7, r10
      d6:	f3 5a       	subi	r31, 0xA3	; 163
      d8:	00 a0       	ldd	r0, Z+32	; 0x20
      da:	72 4e       	sbci	r23, 0xE2	; 226
      dc:	18 09       	sbc	r17, r8
      de:	00 10       	cpse	r0, r0
      e0:	a5 d4       	rcall	.+2378   	; 0xa2c <mpu6050_init+0x70>
      e2:	e8 00       	.word	0x00e8	; ????
      e4:	00 e8       	ldi	r16, 0x80	; 128
      e6:	76 48       	sbci	r23, 0x86	; 134
      e8:	17 00       	.word	0x0017	; ????
      ea:	00 e4       	ldi	r16, 0x40	; 64
      ec:	0b 54       	subi	r16, 0x4B	; 75
      ee:	02 00       	.word	0x0002	; ????
      f0:	00 ca       	rjmp	.-3072   	; 0xfffff4f2 <__eeprom_end+0xff7ef4f2>
      f2:	9a 3b       	cpi	r25, 0xBA	; 186
      f4:	00 00       	nop
      f6:	00 e1       	ldi	r16, 0x10	; 16
      f8:	f5 05       	cpc	r31, r5
      fa:	00 00       	nop
      fc:	80 96       	adiw	r24, 0x20	; 32
      fe:	98 00       	.word	0x0098	; ????
     100:	00 00       	nop
     102:	40 42       	sbci	r20, 0x20	; 32
     104:	0f 00       	.word	0x000f	; ????
     106:	00 00       	nop
     108:	a0 86       	std	Z+8, r10	; 0x08
     10a:	01 00       	.word	0x0001	; ????
     10c:	00 00       	nop
     10e:	10 27       	eor	r17, r16
     110:	00 00       	nop
     112:	00 00       	nop
     114:	e8 03       	fmulsu	r22, r16
     116:	00 00       	nop
     118:	00 00       	nop
     11a:	64 00       	.word	0x0064	; ????
     11c:	00 00       	nop
     11e:	00 00       	nop
     120:	0a 00       	.word	0x000a	; ????
     122:	00 00       	nop
     124:	00 00       	nop
     126:	01 00       	.word	0x0001	; ????
     128:	00 00       	nop
     12a:	00 00       	nop
     12c:	2c 76       	andi	r18, 0x6C	; 108
     12e:	d8 88       	ldd	r13, Y+16	; 0x10
     130:	dc 67       	ori	r29, 0x7C	; 124
     132:	4f 08       	sbc	r4, r15
     134:	23 df       	rcall	.-442    	; 0xffffff7c <__eeprom_end+0xff7eff7c>
     136:	c1 df       	rcall	.-126    	; 0xba <__SREG__+0x7b>
     138:	ae 59       	subi	r26, 0x9E	; 158
     13a:	e1 b1       	in	r30, 0x01	; 1
     13c:	b7 96       	adiw	r30, 0x27	; 39
     13e:	e5 e3       	ldi	r30, 0x35	; 53
     140:	e4 53       	subi	r30, 0x34	; 52
     142:	c6 3a       	cpi	r28, 0xA6	; 166
     144:	e6 51       	subi	r30, 0x16	; 22
     146:	99 76       	andi	r25, 0x69	; 105
     148:	96 e8       	ldi	r25, 0x86	; 134
     14a:	e6 c2       	rjmp	.+1484   	; 0x718 <__stack+0x219>
     14c:	84 26       	eor	r8, r20
     14e:	eb 89       	ldd	r30, Y+19	; 0x13
     150:	8c 9b       	sbis	0x11, 4	; 17
     152:	62 ed       	ldi	r22, 0xD2	; 210
     154:	40 7c       	andi	r20, 0xC0	; 192
     156:	6f fc       	.word	0xfc6f	; ????
     158:	ef bc       	out	0x2f, r14	; 47
     15a:	9c 9f       	mul	r25, r28
     15c:	40 f2       	brcs	.-112    	; 0xee <__trampolines_end+0x1c>
     15e:	ba a5       	ldd	r27, Y+42	; 0x2a
     160:	6f a5       	ldd	r22, Y+47	; 0x2f
     162:	f4 90       	lpm	r15, Z
     164:	05 5a       	subi	r16, 0xA5	; 165
     166:	2a f7       	brpl	.-54     	; 0x132 <__trampolines_end+0x60>
     168:	5c 93       	st	X, r21
     16a:	6b 6c       	ori	r22, 0xCB	; 203
     16c:	f9 67       	ori	r31, 0x79	; 121
     16e:	6d c1       	rjmp	.+730    	; 0x44a <debug_printing+0xbe>
     170:	1b fc       	.word	0xfc1b	; ????
     172:	e0 e4       	ldi	r30, 0x40	; 64
     174:	0d 47       	sbci	r16, 0x7D	; 125
     176:	fe f5       	brtc	.+126    	; 0x1f6 <.do_clear_bss_loop>
     178:	20 e6       	ldi	r18, 0x60	; 96
     17a:	b5 00       	.word	0x00b5	; ????
     17c:	d0 ed       	ldi	r29, 0xD0	; 208
     17e:	90 2e       	mov	r9, r16
     180:	03 00       	.word	0x0003	; ????
     182:	94 35       	cpi	r25, 0x54	; 84
     184:	77 05       	cpc	r23, r7
     186:	00 80       	ld	r0, Z
     188:	84 1e       	adc	r8, r20
     18a:	08 00       	.word	0x0008	; ????
     18c:	00 20       	and	r0, r0
     18e:	4e 0a       	sbc	r4, r30
     190:	00 00       	nop
     192:	00 c8       	rjmp	.-4096   	; 0xfffff194 <__eeprom_end+0xff7ef194>
     194:	0c 33       	cpi	r16, 0x3C	; 60
     196:	33 33       	cpi	r19, 0x33	; 51
     198:	33 0f       	add	r19, r19
     19a:	98 6e       	ori	r25, 0xE8	; 232
     19c:	12 83       	std	Z+2, r17	; 0x02
     19e:	11 41       	sbci	r17, 0x11	; 17
     1a0:	ef 8d       	ldd	r30, Y+31	; 0x1f
     1a2:	21 14       	cp	r2, r1
     1a4:	89 3b       	cpi	r24, 0xB9	; 185
     1a6:	e6 55       	subi	r30, 0x56	; 86
     1a8:	16 cf       	rjmp	.-468    	; 0xffffffd6 <__eeprom_end+0xff7effd6>
     1aa:	fe e6       	ldi	r31, 0x6E	; 110
     1ac:	db 18       	sub	r13, r11
     1ae:	d1 84       	ldd	r13, Z+9	; 0x09
     1b0:	4b 38       	cpi	r20, 0x8B	; 139
     1b2:	1b f7       	brvc	.-58     	; 0x17a <__trampolines_end+0xa8>
     1b4:	7c 1d       	adc	r23, r12
     1b6:	90 1d       	adc	r25, r0
     1b8:	a4 bb       	out	0x14, r26	; 20
     1ba:	e4 24       	eor	r14, r4
     1bc:	20 32       	cpi	r18, 0x20	; 32
     1be:	84 72       	andi	r24, 0x24	; 36
     1c0:	5e 22       	and	r5, r30
     1c2:	81 00       	.word	0x0081	; ????
     1c4:	c9 f1       	breq	.+114    	; 0x238 <i2c_start+0x22>
     1c6:	24 ec       	ldi	r18, 0xC4	; 196
     1c8:	a1 e5       	ldi	r26, 0x51	; 81
     1ca:	3d 27       	eor	r19, r29

000001cc <__ctors_end>:
     1cc:	11 24       	eor	r1, r1
     1ce:	1f be       	out	0x3f, r1	; 63
     1d0:	cf ef       	ldi	r28, 0xFF	; 255
     1d2:	d4 e0       	ldi	r29, 0x04	; 4
     1d4:	de bf       	out	0x3e, r29	; 62
     1d6:	cd bf       	out	0x3d, r28	; 61

000001d8 <__do_copy_data>:
     1d8:	11 e0       	ldi	r17, 0x01	; 1
     1da:	a0 e0       	ldi	r26, 0x00	; 0
     1dc:	b1 e0       	ldi	r27, 0x01	; 1
     1de:	ee ef       	ldi	r30, 0xFE	; 254
     1e0:	f5 e2       	ldi	r31, 0x25	; 37
     1e2:	02 c0       	rjmp	.+4      	; 0x1e8 <__do_copy_data+0x10>
     1e4:	05 90       	lpm	r0, Z+
     1e6:	0d 92       	st	X+, r0
     1e8:	a0 31       	cpi	r26, 0x10	; 16
     1ea:	b1 07       	cpc	r27, r17
     1ec:	d9 f7       	brne	.-10     	; 0x1e4 <__do_copy_data+0xc>

000001ee <__do_clear_bss>:
     1ee:	21 e0       	ldi	r18, 0x01	; 1
     1f0:	a0 e1       	ldi	r26, 0x10	; 16
     1f2:	b1 e0       	ldi	r27, 0x01	; 1
     1f4:	01 c0       	rjmp	.+2      	; 0x1f8 <.do_clear_bss_start>

000001f6 <.do_clear_bss_loop>:
     1f6:	1d 92       	st	X+, r1

000001f8 <.do_clear_bss_start>:
     1f8:	aa 3e       	cpi	r26, 0xEA	; 234
     1fa:	b2 07       	cpc	r27, r18
     1fc:	e1 f7       	brne	.-8      	; 0x1f6 <.do_clear_bss_loop>
     1fe:	0e 94 af 03 	call	0x75e	; 0x75e <main>
     202:	0c 94 fd 12 	jmp	0x25fa	; 0x25fa <_exit>

00000206 <__bad_interrupt>:
     206:	0c 94 00 00 	jmp	0	; 0x0 <__vectors>

0000020a <i2c_init>:
*************************************************************************/
void i2c_init(void)
{
  /* initialize TWI clock: 100 kHz clock, TWPS = 0 => prescaler = 1 */
  
  TWSR = 0;                         /* no prescaler */
     20a:	10 92 b9 00 	sts	0x00B9, r1
  TWBR = ((F_CPU/SCL_CLOCK)-16)/2;  /* must be > 10 for stable operation */
     20e:	88 e4       	ldi	r24, 0x48	; 72
     210:	80 93 b8 00 	sts	0x00B8, r24
     214:	08 95       	ret

00000216 <i2c_start>:
{
	uint32_t  i2c_timer = 0;
    uint8_t   twst;

	// send START condition
	TWCR = (1<<TWINT) | (1<<TWSTA) | (1<<TWEN);
     216:	94 ea       	ldi	r25, 0xA4	; 164
     218:	90 93 bc 00 	sts	0x00BC, r25

	// wait until transmission completed
	i2c_timer = I2C_TIMER_DELAY;
     21c:	4f ef       	ldi	r20, 0xFF	; 255
     21e:	50 e0       	ldi	r21, 0x00	; 0
     220:	60 e0       	ldi	r22, 0x00	; 0
     222:	70 e0       	ldi	r23, 0x00	; 0
	while(!(TWCR & (1<<TWINT)) && i2c_timer--);
     224:	ec eb       	ldi	r30, 0xBC	; 188
     226:	f0 e0       	ldi	r31, 0x00	; 0
     228:	90 81       	ld	r25, Z
     22a:	99 23       	and	r25, r25
     22c:	34 f0       	brlt	.+12     	; 0x23a <i2c_start+0x24>
     22e:	41 50       	subi	r20, 0x01	; 1
     230:	51 09       	sbc	r21, r1
     232:	61 09       	sbc	r22, r1
     234:	71 09       	sbc	r23, r1
     236:	c0 f7       	brcc	.-16     	; 0x228 <i2c_start+0x12>
     238:	04 c0       	rjmp	.+8      	; 0x242 <i2c_start+0x2c>
	if(i2c_timer == 0)
     23a:	45 2b       	or	r20, r21
     23c:	46 2b       	or	r20, r22
     23e:	47 2b       	or	r20, r23
     240:	41 f1       	breq	.+80     	; 0x292 <i2c_start+0x7c>
		return 1;

	// check value of TWI Status Register. Mask prescaler bits.
	twst = TW_STATUS & 0xF8;
     242:	90 91 b9 00 	lds	r25, 0x00B9
     246:	98 7f       	andi	r25, 0xF8	; 248
	if ( (twst != TW_START) && (twst != TW_REP_START)) return 1;
     248:	98 30       	cpi	r25, 0x08	; 8
     24a:	11 f0       	breq	.+4      	; 0x250 <i2c_start+0x3a>
     24c:	90 31       	cpi	r25, 0x10	; 16
     24e:	19 f5       	brne	.+70     	; 0x296 <i2c_start+0x80>

	// send device address
	TWDR = address;
     250:	80 93 bb 00 	sts	0x00BB, r24
	TWCR = (1<<TWINT) | (1<<TWEN);
     254:	84 e8       	ldi	r24, 0x84	; 132
     256:	80 93 bc 00 	sts	0x00BC, r24

	// wail until transmission completed and ACK/NACK has been received
	i2c_timer = I2C_TIMER_DELAY;
     25a:	8f ef       	ldi	r24, 0xFF	; 255
     25c:	90 e0       	ldi	r25, 0x00	; 0
     25e:	a0 e0       	ldi	r26, 0x00	; 0
     260:	b0 e0       	ldi	r27, 0x00	; 0
	while(!(TWCR & (1<<TWINT)) && i2c_timer--);
     262:	ec eb       	ldi	r30, 0xBC	; 188
     264:	f0 e0       	ldi	r31, 0x00	; 0
     266:	20 81       	ld	r18, Z
     268:	22 23       	and	r18, r18
     26a:	2c f0       	brlt	.+10     	; 0x276 <i2c_start+0x60>
     26c:	01 97       	sbiw	r24, 0x01	; 1
     26e:	a1 09       	sbc	r26, r1
     270:	b1 09       	sbc	r27, r1
     272:	c8 f7       	brcc	.-14     	; 0x266 <i2c_start+0x50>
     274:	04 c0       	rjmp	.+8      	; 0x27e <i2c_start+0x68>
	if(i2c_timer == 0)
     276:	89 2b       	or	r24, r25
     278:	8a 2b       	or	r24, r26
     27a:	8b 2b       	or	r24, r27
     27c:	71 f0       	breq	.+28     	; 0x29a <i2c_start+0x84>
		return 1;

	// check value of TWI Status Register. Mask prescaler bits.
	twst = TW_STATUS & 0xF8;
     27e:	90 91 b9 00 	lds	r25, 0x00B9
     282:	98 7f       	andi	r25, 0xF8	; 248
	if ( (twst != TW_MT_SLA_ACK) && (twst != TW_MR_SLA_ACK) ) return 1;
     284:	98 31       	cpi	r25, 0x18	; 24
     286:	59 f0       	breq	.+22     	; 0x29e <i2c_start+0x88>
     288:	81 e0       	ldi	r24, 0x01	; 1
     28a:	90 34       	cpi	r25, 0x40	; 64
     28c:	49 f4       	brne	.+18     	; 0x2a0 <i2c_start+0x8a>
     28e:	80 e0       	ldi	r24, 0x00	; 0
     290:	08 95       	ret

	// wait until transmission completed
	i2c_timer = I2C_TIMER_DELAY;
	while(!(TWCR & (1<<TWINT)) && i2c_timer--);
	if(i2c_timer == 0)
		return 1;
     292:	81 e0       	ldi	r24, 0x01	; 1
     294:	08 95       	ret

	// check value of TWI Status Register. Mask prescaler bits.
	twst = TW_STATUS & 0xF8;
	if ( (twst != TW_START) && (twst != TW_REP_START)) return 1;
     296:	81 e0       	ldi	r24, 0x01	; 1
     298:	08 95       	ret

	// wail until transmission completed and ACK/NACK has been received
	i2c_timer = I2C_TIMER_DELAY;
	while(!(TWCR & (1<<TWINT)) && i2c_timer--);
	if(i2c_timer == 0)
		return 1;
     29a:	81 e0       	ldi	r24, 0x01	; 1
     29c:	08 95       	ret

	// check value of TWI Status Register. Mask prescaler bits.
	twst = TW_STATUS & 0xF8;
	if ( (twst != TW_MT_SLA_ACK) && (twst != TW_MR_SLA_ACK) ) return 1;

	return 0;
     29e:	80 e0       	ldi	r24, 0x00	; 0

}/* i2c_start */
     2a0:	08 95       	ret

000002a2 <i2c_stop>:
void i2c_stop(void)
{
	uint32_t  i2c_timer = 0;

    /* send stop condition */
	TWCR = (1<<TWINT) | (1<<TWEN) | (1<<TWSTO);
     2a2:	84 e9       	ldi	r24, 0x94	; 148
     2a4:	80 93 bc 00 	sts	0x00BC, r24
	
	// wait until stop condition is executed and bus released
	i2c_timer = I2C_TIMER_DELAY;
	while((TWCR & (1<<TWSTO)) && i2c_timer--);
     2a8:	80 e0       	ldi	r24, 0x00	; 0
     2aa:	90 e0       	ldi	r25, 0x00	; 0
     2ac:	ec eb       	ldi	r30, 0xBC	; 188
     2ae:	f0 e0       	ldi	r31, 0x00	; 0
     2b0:	20 81       	ld	r18, Z
     2b2:	24 ff       	sbrs	r18, 4
     2b4:	05 c0       	rjmp	.+10     	; 0x2c0 <i2c_stop+0x1e>
     2b6:	01 96       	adiw	r24, 0x01	; 1
     2b8:	81 15       	cp	r24, r1
     2ba:	21 e0       	ldi	r18, 0x01	; 1
     2bc:	92 07       	cpc	r25, r18
     2be:	c1 f7       	brne	.-16     	; 0x2b0 <i2c_stop+0xe>
     2c0:	08 95       	ret

000002c2 <i2c_write>:
{	
	uint32_t  i2c_timer = 0;
    uint8_t   twst;
    
	// send data to the previously addressed device
	TWDR = data;
     2c2:	80 93 bb 00 	sts	0x00BB, r24
	TWCR = (1<<TWINT) | (1<<TWEN);
     2c6:	84 e8       	ldi	r24, 0x84	; 132
     2c8:	80 93 bc 00 	sts	0x00BC, r24

	// wait until transmission completed
	i2c_timer = I2C_TIMER_DELAY;
     2cc:	8f ef       	ldi	r24, 0xFF	; 255
     2ce:	90 e0       	ldi	r25, 0x00	; 0
     2d0:	a0 e0       	ldi	r26, 0x00	; 0
     2d2:	b0 e0       	ldi	r27, 0x00	; 0
	while(!(TWCR & (1<<TWINT)) && i2c_timer--);
     2d4:	ec eb       	ldi	r30, 0xBC	; 188
     2d6:	f0 e0       	ldi	r31, 0x00	; 0
     2d8:	20 81       	ld	r18, Z
     2da:	22 23       	and	r18, r18
     2dc:	2c f0       	brlt	.+10     	; 0x2e8 <i2c_write+0x26>
     2de:	01 97       	sbiw	r24, 0x01	; 1
     2e0:	a1 09       	sbc	r26, r1
     2e2:	b1 09       	sbc	r27, r1
     2e4:	c8 f7       	brcc	.-14     	; 0x2d8 <i2c_write+0x16>
     2e6:	04 c0       	rjmp	.+8      	; 0x2f0 <i2c_write+0x2e>
	if(i2c_timer == 0)
     2e8:	89 2b       	or	r24, r25
     2ea:	8a 2b       	or	r24, r26
     2ec:	8b 2b       	or	r24, r27
     2ee:	41 f0       	breq	.+16     	; 0x300 <i2c_write+0x3e>
		return 1;

	// check value of TWI Status Register. Mask prescaler bits
	twst = TW_STATUS & 0xF8;
     2f0:	90 91 b9 00 	lds	r25, 0x00B9
     2f4:	98 7f       	andi	r25, 0xF8	; 248
	if( twst != TW_MT_DATA_ACK) return 1;
     2f6:	81 e0       	ldi	r24, 0x01	; 1
     2f8:	98 32       	cpi	r25, 0x28	; 40
     2fa:	19 f4       	brne	.+6      	; 0x302 <i2c_write+0x40>
     2fc:	80 e0       	ldi	r24, 0x00	; 0
     2fe:	08 95       	ret

	// wait until transmission completed
	i2c_timer = I2C_TIMER_DELAY;
	while(!(TWCR & (1<<TWINT)) && i2c_timer--);
	if(i2c_timer == 0)
		return 1;
     300:	81 e0       	ldi	r24, 0x01	; 1
	// check value of TWI Status Register. Mask prescaler bits
	twst = TW_STATUS & 0xF8;
	if( twst != TW_MT_DATA_ACK) return 1;
	return 0;

}/* i2c_write */
     302:	08 95       	ret

00000304 <i2c_readAck>:
*************************************************************************/
unsigned char i2c_readAck(void)
{
	uint32_t  i2c_timer = 0;

	TWCR = (1<<TWINT) | (1<<TWEN) | (1<<TWEA);
     304:	84 ec       	ldi	r24, 0xC4	; 196
     306:	80 93 bc 00 	sts	0x00BC, r24
	i2c_timer = I2C_TIMER_DELAY;
     30a:	8f ef       	ldi	r24, 0xFF	; 255
     30c:	90 e0       	ldi	r25, 0x00	; 0
     30e:	a0 e0       	ldi	r26, 0x00	; 0
     310:	b0 e0       	ldi	r27, 0x00	; 0
	while(!(TWCR & (1<<TWINT)) && i2c_timer--);
     312:	ec eb       	ldi	r30, 0xBC	; 188
     314:	f0 e0       	ldi	r31, 0x00	; 0
     316:	20 81       	ld	r18, Z
     318:	22 23       	and	r18, r18
     31a:	2c f0       	brlt	.+10     	; 0x326 <i2c_readAck+0x22>
     31c:	01 97       	sbiw	r24, 0x01	; 1
     31e:	a1 09       	sbc	r26, r1
     320:	b1 09       	sbc	r27, r1
     322:	c8 f7       	brcc	.-14     	; 0x316 <i2c_readAck+0x12>
     324:	04 c0       	rjmp	.+8      	; 0x32e <i2c_readAck+0x2a>
	if(i2c_timer == 0)
     326:	89 2b       	or	r24, r25
     328:	8a 2b       	or	r24, r26
     32a:	8b 2b       	or	r24, r27
     32c:	19 f0       	breq	.+6      	; 0x334 <i2c_readAck+0x30>
		return 0;

    return TWDR;
     32e:	80 91 bb 00 	lds	r24, 0x00BB
     332:	08 95       	ret

	TWCR = (1<<TWINT) | (1<<TWEN) | (1<<TWEA);
	i2c_timer = I2C_TIMER_DELAY;
	while(!(TWCR & (1<<TWINT)) && i2c_timer--);
	if(i2c_timer == 0)
		return 0;
     334:	80 e0       	ldi	r24, 0x00	; 0

    return TWDR;

}/* i2c_readAck */
     336:	08 95       	ret

00000338 <i2c_readNak>:
*************************************************************************/
unsigned char i2c_readNak(void)
{
	uint32_t  i2c_timer = 0;

	TWCR = (1<<TWINT) | (1<<TWEN);
     338:	84 e8       	ldi	r24, 0x84	; 132
     33a:	80 93 bc 00 	sts	0x00BC, r24
	i2c_timer = I2C_TIMER_DELAY;
     33e:	8f ef       	ldi	r24, 0xFF	; 255
     340:	90 e0       	ldi	r25, 0x00	; 0
     342:	a0 e0       	ldi	r26, 0x00	; 0
     344:	b0 e0       	ldi	r27, 0x00	; 0
	while(!(TWCR & (1<<TWINT)) && i2c_timer--);
     346:	ec eb       	ldi	r30, 0xBC	; 188
     348:	f0 e0       	ldi	r31, 0x00	; 0
     34a:	20 81       	ld	r18, Z
     34c:	22 23       	and	r18, r18
     34e:	2c f0       	brlt	.+10     	; 0x35a <i2c_readNak+0x22>
     350:	01 97       	sbiw	r24, 0x01	; 1
     352:	a1 09       	sbc	r26, r1
     354:	b1 09       	sbc	r27, r1
     356:	c8 f7       	brcc	.-14     	; 0x34a <i2c_readNak+0x12>
     358:	04 c0       	rjmp	.+8      	; 0x362 <i2c_readNak+0x2a>
	if(i2c_timer == 0)
     35a:	89 2b       	or	r24, r25
     35c:	8a 2b       	or	r24, r26
     35e:	8b 2b       	or	r24, r27
     360:	19 f0       	breq	.+6      	; 0x368 <i2c_readNak+0x30>
		return 0;
	
    return TWDR;
     362:	80 91 bb 00 	lds	r24, 0x00BB
     366:	08 95       	ret

	TWCR = (1<<TWINT) | (1<<TWEN);
	i2c_timer = I2C_TIMER_DELAY;
	while(!(TWCR & (1<<TWINT)) && i2c_timer--);
	if(i2c_timer == 0)
		return 0;
     368:	80 e0       	ldi	r24, 0x00	; 0
	
    return TWDR;

}/* i2c_readNak */
     36a:	08 95       	ret

0000036c <input_get_setpoints>:
 *
 * Created: 24.05.2014 14:00:08
 *  Author: Anders
 */ 
void input_get_setpoints(double *sp_roll,double *sp_pitch,double *sp_yaw){
	*sp_roll=0;
     36c:	fc 01       	movw	r30, r24
     36e:	10 82       	st	Z, r1
     370:	11 82       	std	Z+1, r1	; 0x01
     372:	12 82       	std	Z+2, r1	; 0x02
     374:	13 82       	std	Z+3, r1	; 0x03
	*sp_pitch=0;
     376:	fb 01       	movw	r30, r22
     378:	10 82       	st	Z, r1
     37a:	11 82       	std	Z+1, r1	; 0x01
     37c:	12 82       	std	Z+2, r1	; 0x02
     37e:	13 82       	std	Z+3, r1	; 0x03
	*sp_yaw=0;
     380:	fa 01       	movw	r30, r20
     382:	10 82       	st	Z, r1
     384:	11 82       	std	Z+1, r1	; 0x01
     386:	12 82       	std	Z+2, r1	; 0x02
     388:	13 82       	std	Z+3, r1	; 0x03
     38a:	08 95       	ret

0000038c <debug_printing>:



void calculate_elevation_force(double *e_acc,double roll,double pitch,double axg,double ayg,double azg);

void debug_printing(){
     38c:	0f 93       	push	r16
     38e:	1f 93       	push	r17
	//sensor readings
	
	uart_puts("sensors\n");
     390:	84 e0       	ldi	r24, 0x04	; 4
     392:	91 e0       	ldi	r25, 0x01	; 1
     394:	0e 94 35 0d 	call	0x1a6a	; 0x1a6a <uart_puts>
	dtostrf(roll, 3, 5, itmp); uart_puts(itmp); uart_putc(' ');
     398:	60 91 24 01 	lds	r22, 0x0124
     39c:	70 91 25 01 	lds	r23, 0x0125
     3a0:	80 91 26 01 	lds	r24, 0x0126
     3a4:	90 91 27 01 	lds	r25, 0x0127
     3a8:	09 e9       	ldi	r16, 0x99	; 153
     3aa:	11 e0       	ldi	r17, 0x01	; 1
     3ac:	25 e0       	ldi	r18, 0x05	; 5
     3ae:	43 e0       	ldi	r20, 0x03	; 3
     3b0:	0e 94 86 10 	call	0x210c	; 0x210c <dtostrf>
     3b4:	c8 01       	movw	r24, r16
     3b6:	0e 94 35 0d 	call	0x1a6a	; 0x1a6a <uart_puts>
     3ba:	80 e2       	ldi	r24, 0x20	; 32
     3bc:	0e 94 20 0d 	call	0x1a40	; 0x1a40 <uart_putc>
	dtostrf(pitch, 3, 5, itmp); uart_puts(itmp); uart_putc(' ');
     3c0:	60 91 20 01 	lds	r22, 0x0120
     3c4:	70 91 21 01 	lds	r23, 0x0121
     3c8:	80 91 22 01 	lds	r24, 0x0122
     3cc:	90 91 23 01 	lds	r25, 0x0123
     3d0:	25 e0       	ldi	r18, 0x05	; 5
     3d2:	43 e0       	ldi	r20, 0x03	; 3
     3d4:	0e 94 86 10 	call	0x210c	; 0x210c <dtostrf>
     3d8:	c8 01       	movw	r24, r16
     3da:	0e 94 35 0d 	call	0x1a6a	; 0x1a6a <uart_puts>
     3de:	80 e2       	ldi	r24, 0x20	; 32
     3e0:	0e 94 20 0d 	call	0x1a40	; 0x1a40 <uart_putc>
	dtostrf(yaw, 3, 5, itmp); uart_puts(itmp); uart_putc(' ');
     3e4:	60 91 1c 01 	lds	r22, 0x011C
     3e8:	70 91 1d 01 	lds	r23, 0x011D
     3ec:	80 91 1e 01 	lds	r24, 0x011E
     3f0:	90 91 1f 01 	lds	r25, 0x011F
     3f4:	25 e0       	ldi	r18, 0x05	; 5
     3f6:	43 e0       	ldi	r20, 0x03	; 3
     3f8:	0e 94 86 10 	call	0x210c	; 0x210c <dtostrf>
     3fc:	c8 01       	movw	r24, r16
     3fe:	0e 94 35 0d 	call	0x1a6a	; 0x1a6a <uart_puts>
     402:	80 e2       	ldi	r24, 0x20	; 32
     404:	0e 94 20 0d 	call	0x1a40	; 0x1a40 <uart_putc>
	dtostrf(gxds, 3, 5, itmp); uart_puts(itmp); uart_putc(' ');
     408:	60 91 18 01 	lds	r22, 0x0118
     40c:	70 91 19 01 	lds	r23, 0x0119
     410:	80 91 1a 01 	lds	r24, 0x011A
     414:	90 91 1b 01 	lds	r25, 0x011B
     418:	25 e0       	ldi	r18, 0x05	; 5
     41a:	43 e0       	ldi	r20, 0x03	; 3
     41c:	0e 94 86 10 	call	0x210c	; 0x210c <dtostrf>
     420:	c8 01       	movw	r24, r16
     422:	0e 94 35 0d 	call	0x1a6a	; 0x1a6a <uart_puts>
     426:	80 e2       	ldi	r24, 0x20	; 32
     428:	0e 94 20 0d 	call	0x1a40	; 0x1a40 <uart_putc>
	dtostrf(gyds, 3, 5, itmp); uart_puts(itmp); uart_putc(' ');
     42c:	60 91 14 01 	lds	r22, 0x0114
     430:	70 91 15 01 	lds	r23, 0x0115
     434:	80 91 16 01 	lds	r24, 0x0116
     438:	90 91 17 01 	lds	r25, 0x0117
     43c:	25 e0       	ldi	r18, 0x05	; 5
     43e:	43 e0       	ldi	r20, 0x03	; 3
     440:	0e 94 86 10 	call	0x210c	; 0x210c <dtostrf>
     444:	c8 01       	movw	r24, r16
     446:	0e 94 35 0d 	call	0x1a6a	; 0x1a6a <uart_puts>
     44a:	80 e2       	ldi	r24, 0x20	; 32
     44c:	0e 94 20 0d 	call	0x1a40	; 0x1a40 <uart_putc>
	dtostrf(gzds, 3, 5, itmp); uart_puts(itmp); uart_putc(' ');
     450:	60 91 10 01 	lds	r22, 0x0110
     454:	70 91 11 01 	lds	r23, 0x0111
     458:	80 91 12 01 	lds	r24, 0x0112
     45c:	90 91 13 01 	lds	r25, 0x0113
     460:	25 e0       	ldi	r18, 0x05	; 5
     462:	43 e0       	ldi	r20, 0x03	; 3
     464:	0e 94 86 10 	call	0x210c	; 0x210c <dtostrf>
     468:	c8 01       	movw	r24, r16
     46a:	0e 94 35 0d 	call	0x1a6a	; 0x1a6a <uart_puts>
     46e:	80 e2       	ldi	r24, 0x20	; 32
     470:	0e 94 20 0d 	call	0x1a40	; 0x1a40 <uart_putc>
	uart_puts("\r\n");
     474:	8d e0       	ldi	r24, 0x0D	; 13
     476:	91 e0       	ldi	r25, 0x01	; 1
     478:	0e 94 35 0d 	call	0x1a6a	; 0x1a6a <uart_puts>
	uart_puts("\r\n");
	uart_puts("\r\n");
	//_delay_ms(1000);
	//_delay_ms(400);
	*/
}
     47c:	1f 91       	pop	r17
     47e:	0f 91       	pop	r16
     480:	08 95       	ret

00000482 <controller_procedure>:
}

double deg_to_rad(double deg){
	return (deg/180)*3.14;
}
void controller_procedure(){
     482:	4f 92       	push	r4
     484:	5f 92       	push	r5
     486:	6f 92       	push	r6
     488:	7f 92       	push	r7
     48a:	8f 92       	push	r8
     48c:	9f 92       	push	r9
     48e:	af 92       	push	r10
     490:	bf 92       	push	r11
     492:	cf 92       	push	r12
     494:	df 92       	push	r13
     496:	ef 92       	push	r14
     498:	ff 92       	push	r15
     49a:	0f 93       	push	r16
     49c:	cf 93       	push	r28
     49e:	df 93       	push	r29
     4a0:	00 d0       	rcall	.+0      	; 0x4a2 <controller_procedure+0x20>
     4a2:	00 d0       	rcall	.+0      	; 0x4a4 <controller_procedure+0x22>
     4a4:	cd b7       	in	r28, 0x3d	; 61
     4a6:	de b7       	in	r29, 0x3e	; 62
	
	//all these are euler angles
	
	//read sensors
	mpu6050_getRollPitchYaw(&roll, &pitch, &yaw);  //euler angles in radians
     4a8:	4c e1       	ldi	r20, 0x1C	; 28
     4aa:	51 e0       	ldi	r21, 0x01	; 1
     4ac:	60 e2       	ldi	r22, 0x20	; 32
     4ae:	71 e0       	ldi	r23, 0x01	; 1
     4b0:	84 e2       	ldi	r24, 0x24	; 36
     4b2:	91 e0       	ldi	r25, 0x01	; 1
     4b4:	0e 94 d0 0a 	call	0x15a0	; 0x15a0 <mpu6050_getRollPitchYaw>
	#else
		//round up by default
		__ticks_dc = (uint32_t)(ceil(fabs(__tmp)));
	#endif

	__builtin_avr_delay_cycles(__ticks_dc);
     4b8:	8f e3       	ldi	r24, 0x3F	; 63
     4ba:	9c e9       	ldi	r25, 0x9C	; 156
     4bc:	01 97       	sbiw	r24, 0x01	; 1
     4be:	f1 f7       	brne	.-4      	; 0x4bc <controller_procedure+0x3a>
     4c0:	00 c0       	rjmp	.+0      	; 0x4c2 <controller_procedure+0x40>
     4c2:	00 00       	nop
	
	
	
	
	//get setpoints
	input_get_setpoints(&sp_roll,&sp_pitch,&sp_yaw);
     4c4:	48 eb       	ldi	r20, 0xB8	; 184
     4c6:	51 e0       	ldi	r21, 0x01	; 1
     4c8:	62 eb       	ldi	r22, 0xB2	; 178
     4ca:	71 e0       	ldi	r23, 0x01	; 1
     4cc:	85 e9       	ldi	r24, 0x95	; 149
     4ce:	91 e0       	ldi	r25, 0x01	; 1
     4d0:	0e 94 b6 01 	call	0x36c	; 0x36c <input_get_setpoints>
	
	//limit setpoints
	
	//calculate rates. output is in dg/s(?) output will be in range [-1.5,1.5]*KP
	pid_compute_output_proportional(sp_roll,roll,STAB,&sp_roll_dot);
     4d4:	20 91 24 01 	lds	r18, 0x0124
     4d8:	30 91 25 01 	lds	r19, 0x0125
     4dc:	40 91 26 01 	lds	r20, 0x0126
     4e0:	50 91 27 01 	lds	r21, 0x0127
     4e4:	60 91 95 01 	lds	r22, 0x0195
     4e8:	70 91 96 01 	lds	r23, 0x0196
     4ec:	80 91 97 01 	lds	r24, 0x0197
     4f0:	90 91 98 01 	lds	r25, 0x0198
     4f4:	0f 2e       	mov	r0, r31
     4f6:	f1 e9       	ldi	r31, 0x91	; 145
     4f8:	ef 2e       	mov	r14, r31
     4fa:	f1 e0       	ldi	r31, 0x01	; 1
     4fc:	ff 2e       	mov	r15, r31
     4fe:	f0 2d       	mov	r31, r0
     500:	00 e0       	ldi	r16, 0x00	; 0
     502:	0e 94 8a 0c 	call	0x1914	; 0x1914 <pid_compute_output_proportional>
	pid_compute_output_proportional(sp_pitch,pitch,STAB,&sp_pitch_dot);
     506:	20 91 20 01 	lds	r18, 0x0120
     50a:	30 91 21 01 	lds	r19, 0x0121
     50e:	40 91 22 01 	lds	r20, 0x0122
     512:	50 91 23 01 	lds	r21, 0x0123
     516:	60 91 b2 01 	lds	r22, 0x01B2
     51a:	70 91 b3 01 	lds	r23, 0x01B3
     51e:	80 91 b4 01 	lds	r24, 0x01B4
     522:	90 91 b5 01 	lds	r25, 0x01B5
     526:	0f 2e       	mov	r0, r31
     528:	f7 ea       	ldi	r31, 0xA7	; 167
     52a:	ef 2e       	mov	r14, r31
     52c:	f1 e0       	ldi	r31, 0x01	; 1
     52e:	ff 2e       	mov	r15, r31
     530:	f0 2d       	mov	r31, r0
     532:	0e 94 8a 0c 	call	0x1914	; 0x1914 <pid_compute_output_proportional>
	pid_compute_output_proportional(sp_yaw,yaw,STAB,&sp_yaw_dot);
     536:	20 91 1c 01 	lds	r18, 0x011C
     53a:	30 91 1d 01 	lds	r19, 0x011D
     53e:	40 91 1e 01 	lds	r20, 0x011E
     542:	50 91 1f 01 	lds	r21, 0x011F
     546:	60 91 b8 01 	lds	r22, 0x01B8
     54a:	70 91 b9 01 	lds	r23, 0x01B9
     54e:	80 91 ba 01 	lds	r24, 0x01BA
     552:	90 91 bb 01 	lds	r25, 0x01BB
     556:	0f 2e       	mov	r0, r31
     558:	f5 e8       	ldi	r31, 0x85	; 133
     55a:	ef 2e       	mov	r14, r31
     55c:	f1 e0       	ldi	r31, 0x01	; 1
     55e:	ff 2e       	mov	r15, r31
     560:	f0 2d       	mov	r31, r0
     562:	0e 94 8a 0c 	call	0x1914	; 0x1914 <pid_compute_output_proportional>
double rad_to_deg(double rad){
	return (rad/3.14)*180;
}

double deg_to_rad(double deg){
	return (deg/180)*3.14;
     566:	20 e0       	ldi	r18, 0x00	; 0
     568:	30 e0       	ldi	r19, 0x00	; 0
     56a:	44 e3       	ldi	r20, 0x34	; 52
     56c:	53 e4       	ldi	r21, 0x43	; 67
     56e:	60 91 18 01 	lds	r22, 0x0118
     572:	70 91 19 01 	lds	r23, 0x0119
     576:	80 91 1a 01 	lds	r24, 0x011A
     57a:	90 91 1b 01 	lds	r25, 0x011B
     57e:	0e 94 26 0e 	call	0x1c4c	; 0x1c4c <__divsf3>
     582:	23 ec       	ldi	r18, 0xC3	; 195
     584:	35 ef       	ldi	r19, 0xF5	; 245
     586:	48 e4       	ldi	r20, 0x48	; 72
     588:	50 e4       	ldi	r21, 0x40	; 64
     58a:	0e 94 c9 0f 	call	0x1f92	; 0x1f92 <__mulsf3>
     58e:	9b 01       	movw	r18, r22
     590:	ac 01       	movw	r20, r24
	pid_compute_output_proportional(sp_pitch,pitch,STAB,&sp_pitch_dot);
	pid_compute_output_proportional(sp_yaw,yaw,STAB,&sp_yaw_dot);
	
	
	//calculate manipulation values (pådrag). output in dg/s^2.
	pid_compute_output_proportional(sp_roll_dot,deg_to_rad(gxds),RATE,&output_roll);
     592:	60 91 91 01 	lds	r22, 0x0191
     596:	70 91 92 01 	lds	r23, 0x0192
     59a:	80 91 93 01 	lds	r24, 0x0193
     59e:	90 91 94 01 	lds	r25, 0x0194
     5a2:	0f 2e       	mov	r0, r31
     5a4:	fd e8       	ldi	r31, 0x8D	; 141
     5a6:	ef 2e       	mov	r14, r31
     5a8:	f1 e0       	ldi	r31, 0x01	; 1
     5aa:	ff 2e       	mov	r15, r31
     5ac:	f0 2d       	mov	r31, r0
     5ae:	01 e0       	ldi	r16, 0x01	; 1
     5b0:	0e 94 8a 0c 	call	0x1914	; 0x1914 <pid_compute_output_proportional>
double rad_to_deg(double rad){
	return (rad/3.14)*180;
}

double deg_to_rad(double deg){
	return (deg/180)*3.14;
     5b4:	20 e0       	ldi	r18, 0x00	; 0
     5b6:	30 e0       	ldi	r19, 0x00	; 0
     5b8:	44 e3       	ldi	r20, 0x34	; 52
     5ba:	53 e4       	ldi	r21, 0x43	; 67
     5bc:	60 91 14 01 	lds	r22, 0x0114
     5c0:	70 91 15 01 	lds	r23, 0x0115
     5c4:	80 91 16 01 	lds	r24, 0x0116
     5c8:	90 91 17 01 	lds	r25, 0x0117
     5cc:	0e 94 26 0e 	call	0x1c4c	; 0x1c4c <__divsf3>
     5d0:	23 ec       	ldi	r18, 0xC3	; 195
     5d2:	35 ef       	ldi	r19, 0xF5	; 245
     5d4:	48 e4       	ldi	r20, 0x48	; 72
     5d6:	50 e4       	ldi	r21, 0x40	; 64
     5d8:	0e 94 c9 0f 	call	0x1f92	; 0x1f92 <__mulsf3>
     5dc:	9b 01       	movw	r18, r22
     5de:	ac 01       	movw	r20, r24
	pid_compute_output_proportional(sp_yaw,yaw,STAB,&sp_yaw_dot);
	
	
	//calculate manipulation values (pådrag). output in dg/s^2.
	pid_compute_output_proportional(sp_roll_dot,deg_to_rad(gxds),RATE,&output_roll);
	pid_compute_output_proportional(sp_pitch_dot,deg_to_rad(gyds),RATE,&output_pitch);
     5e0:	60 91 a7 01 	lds	r22, 0x01A7
     5e4:	70 91 a8 01 	lds	r23, 0x01A8
     5e8:	80 91 a9 01 	lds	r24, 0x01A9
     5ec:	90 91 aa 01 	lds	r25, 0x01AA
     5f0:	0f 2e       	mov	r0, r31
     5f2:	fb ea       	ldi	r31, 0xAB	; 171
     5f4:	ef 2e       	mov	r14, r31
     5f6:	f1 e0       	ldi	r31, 0x01	; 1
     5f8:	ff 2e       	mov	r15, r31
     5fa:	f0 2d       	mov	r31, r0
     5fc:	0e 94 8a 0c 	call	0x1914	; 0x1914 <pid_compute_output_proportional>
double rad_to_deg(double rad){
	return (rad/3.14)*180;
}

double deg_to_rad(double deg){
	return (deg/180)*3.14;
     600:	20 e0       	ldi	r18, 0x00	; 0
     602:	30 e0       	ldi	r19, 0x00	; 0
     604:	44 e3       	ldi	r20, 0x34	; 52
     606:	53 e4       	ldi	r21, 0x43	; 67
     608:	60 91 10 01 	lds	r22, 0x0110
     60c:	70 91 11 01 	lds	r23, 0x0111
     610:	80 91 12 01 	lds	r24, 0x0112
     614:	90 91 13 01 	lds	r25, 0x0113
     618:	0e 94 26 0e 	call	0x1c4c	; 0x1c4c <__divsf3>
     61c:	23 ec       	ldi	r18, 0xC3	; 195
     61e:	35 ef       	ldi	r19, 0xF5	; 245
     620:	48 e4       	ldi	r20, 0x48	; 72
     622:	50 e4       	ldi	r21, 0x40	; 64
     624:	0e 94 c9 0f 	call	0x1f92	; 0x1f92 <__mulsf3>
     628:	9b 01       	movw	r18, r22
     62a:	ac 01       	movw	r20, r24
	
	
	//calculate manipulation values (pådrag). output in dg/s^2.
	pid_compute_output_proportional(sp_roll_dot,deg_to_rad(gxds),RATE,&output_roll);
	pid_compute_output_proportional(sp_pitch_dot,deg_to_rad(gyds),RATE,&output_pitch);
	pid_compute_output_proportional(sp_yaw_dot,deg_to_rad(gzds),RATE,&output_yaw);
     62c:	60 91 85 01 	lds	r22, 0x0185
     630:	70 91 86 01 	lds	r23, 0x0186
     634:	80 91 87 01 	lds	r24, 0x0187
     638:	90 91 88 01 	lds	r25, 0x0188
     63c:	0f 2e       	mov	r0, r31
     63e:	f3 ea       	ldi	r31, 0xA3	; 163
     640:	ef 2e       	mov	r14, r31
     642:	f1 e0       	ldi	r31, 0x01	; 1
     644:	ff 2e       	mov	r15, r31
     646:	f0 2d       	mov	r31, r0
     648:	0e 94 8a 0c 	call	0x1914	; 0x1914 <pid_compute_output_proportional>
	
	//calculate combined thrust
	combined_thrust=10;
     64c:	8a e0       	ldi	r24, 0x0A	; 10
     64e:	80 93 af 01 	sts	0x01AF, r24
	
	//convert outputs to sensible values
	
	//convert outputs to propeller force
	motor_fl_speed=combined_thrust-output_roll+output_pitch+output_yaw;
     652:	80 90 8d 01 	lds	r8, 0x018D
     656:	90 90 8e 01 	lds	r9, 0x018E
     65a:	a0 90 8f 01 	lds	r10, 0x018F
     65e:	b0 90 90 01 	lds	r11, 0x0190
     662:	a5 01       	movw	r20, r10
     664:	94 01       	movw	r18, r8
     666:	60 e0       	ldi	r22, 0x00	; 0
     668:	70 e0       	ldi	r23, 0x00	; 0
     66a:	80 e2       	ldi	r24, 0x20	; 32
     66c:	91 e4       	ldi	r25, 0x41	; 65
     66e:	0e 94 44 0d 	call	0x1a88	; 0x1a88 <__subsf3>
     672:	69 83       	std	Y+1, r22	; 0x01
     674:	7a 83       	std	Y+2, r23	; 0x02
     676:	8b 83       	std	Y+3, r24	; 0x03
     678:	9c 83       	std	Y+4, r25	; 0x04
     67a:	c0 90 ab 01 	lds	r12, 0x01AB
     67e:	d0 90 ac 01 	lds	r13, 0x01AC
     682:	e0 90 ad 01 	lds	r14, 0x01AD
     686:	f0 90 ae 01 	lds	r15, 0x01AE
     68a:	40 90 a3 01 	lds	r4, 0x01A3
     68e:	50 90 a4 01 	lds	r5, 0x01A4
     692:	60 90 a5 01 	lds	r6, 0x01A5
     696:	70 90 a6 01 	lds	r7, 0x01A6
     69a:	a7 01       	movw	r20, r14
     69c:	96 01       	movw	r18, r12
     69e:	0e 94 45 0d 	call	0x1a8a	; 0x1a8a <__addsf3>
     6a2:	a3 01       	movw	r20, r6
     6a4:	92 01       	movw	r18, r4
     6a6:	0e 94 45 0d 	call	0x1a8a	; 0x1a8a <__addsf3>
     6aa:	0e 94 8e 0e 	call	0x1d1c	; 0x1d1c <__fixsfsi>
     6ae:	70 93 b7 01 	sts	0x01B7, r23
     6b2:	60 93 b6 01 	sts	0x01B6, r22
	motor_fr_speed=combined_thrust+output_roll+output_pitch-output_yaw;
     6b6:	20 e0       	ldi	r18, 0x00	; 0
     6b8:	30 e0       	ldi	r19, 0x00	; 0
     6ba:	40 e2       	ldi	r20, 0x20	; 32
     6bc:	51 e4       	ldi	r21, 0x41	; 65
     6be:	c5 01       	movw	r24, r10
     6c0:	b4 01       	movw	r22, r8
     6c2:	0e 94 45 0d 	call	0x1a8a	; 0x1a8a <__addsf3>
     6c6:	4b 01       	movw	r8, r22
     6c8:	5c 01       	movw	r10, r24
     6ca:	9b 01       	movw	r18, r22
     6cc:	ac 01       	movw	r20, r24
     6ce:	c7 01       	movw	r24, r14
     6d0:	b6 01       	movw	r22, r12
     6d2:	0e 94 45 0d 	call	0x1a8a	; 0x1a8a <__addsf3>
     6d6:	a3 01       	movw	r20, r6
     6d8:	92 01       	movw	r18, r4
     6da:	0e 94 44 0d 	call	0x1a88	; 0x1a88 <__subsf3>
     6de:	0e 94 8e 0e 	call	0x1d1c	; 0x1d1c <__fixsfsi>
     6e2:	70 93 8a 01 	sts	0x018A, r23
     6e6:	60 93 89 01 	sts	0x0189, r22
	motor_bl_speed=combined_thrust-output_roll-output_pitch-output_yaw;
     6ea:	a7 01       	movw	r20, r14
     6ec:	96 01       	movw	r18, r12
     6ee:	69 81       	ldd	r22, Y+1	; 0x01
     6f0:	7a 81       	ldd	r23, Y+2	; 0x02
     6f2:	8b 81       	ldd	r24, Y+3	; 0x03
     6f4:	9c 81       	ldd	r25, Y+4	; 0x04
     6f6:	0e 94 44 0d 	call	0x1a88	; 0x1a88 <__subsf3>
     6fa:	a3 01       	movw	r20, r6
     6fc:	92 01       	movw	r18, r4
     6fe:	0e 94 44 0d 	call	0x1a88	; 0x1a88 <__subsf3>
     702:	0e 94 8e 0e 	call	0x1d1c	; 0x1d1c <__fixsfsi>
     706:	70 93 b1 01 	sts	0x01B1, r23
     70a:	60 93 b0 01 	sts	0x01B0, r22
	motor_br_speed=combined_thrust+output_roll-output_pitch+output_yaw;
     70e:	a7 01       	movw	r20, r14
     710:	96 01       	movw	r18, r12
     712:	c5 01       	movw	r24, r10
     714:	b4 01       	movw	r22, r8
     716:	0e 94 44 0d 	call	0x1a88	; 0x1a88 <__subsf3>
     71a:	9b 01       	movw	r18, r22
     71c:	ac 01       	movw	r20, r24
     71e:	c3 01       	movw	r24, r6
     720:	b2 01       	movw	r22, r4
     722:	0e 94 45 0d 	call	0x1a8a	; 0x1a8a <__addsf3>
     726:	0e 94 8e 0e 	call	0x1d1c	; 0x1d1c <__fixsfsi>
     72a:	70 93 8c 01 	sts	0x018C, r23
     72e:	60 93 8b 01 	sts	0x018B, r22
	
	//control upper/lower limits
	
	//send values to motors
	debug_printing();
     732:	0e 94 c6 01 	call	0x38c	; 0x38c <debug_printing>
	
}
     736:	0f 90       	pop	r0
     738:	0f 90       	pop	r0
     73a:	0f 90       	pop	r0
     73c:	0f 90       	pop	r0
     73e:	df 91       	pop	r29
     740:	cf 91       	pop	r28
     742:	0f 91       	pop	r16
     744:	ff 90       	pop	r15
     746:	ef 90       	pop	r14
     748:	df 90       	pop	r13
     74a:	cf 90       	pop	r12
     74c:	bf 90       	pop	r11
     74e:	af 90       	pop	r10
     750:	9f 90       	pop	r9
     752:	8f 90       	pop	r8
     754:	7f 90       	pop	r7
     756:	6f 90       	pop	r6
     758:	5f 90       	pop	r5
     75a:	4f 90       	pop	r4
     75c:	08 95       	ret

0000075e <main>:

	

    //init uart
	//uart_init(UART_BAUD_SELECT(UART_BAUD_RATE,F_CPU));
	uart_init(UART_UBBR_VALUE);
     75e:	83 e3       	ldi	r24, 0x33	; 51
     760:	90 e0       	ldi	r25, 0x00	; 0
     762:	0e 94 07 0d 	call	0x1a0e	; 0x1a0e <uart_init>

	//init interrupt
	sei();
     766:	78 94       	sei

	//init mpu6050
	mpu6050_init();
     768:	0e 94 de 04 	call	0x9bc	; 0x9bc <mpu6050_init>
     76c:	2f ef       	ldi	r18, 0xFF	; 255
     76e:	80 e7       	ldi	r24, 0x70	; 112
     770:	92 e0       	ldi	r25, 0x02	; 2
     772:	21 50       	subi	r18, 0x01	; 1
     774:	80 40       	sbci	r24, 0x00	; 0
     776:	90 40       	sbci	r25, 0x00	; 0
     778:	e1 f7       	brne	.-8      	; 0x772 <main+0x14>
     77a:	00 c0       	rjmp	.+0      	; 0x77c <main+0x1e>
     77c:	00 00       	nop
	mpu6050_dmpInitialize();
	mpu6050_dmpEnable();
	_delay_ms(10);
	#endif
	for(;;){
		controller_procedure();
     77e:	0e 94 41 02 	call	0x482	; 0x482 <controller_procedure>
     782:	fd cf       	rjmp	.-6      	; 0x77e <main+0x20>

00000784 <mpu6050_readBytes>:
volatile uint8_t buffer[14];

/*
 * read bytes from chip register
 */
int8_t mpu6050_readBytes(uint8_t regAddr, uint8_t length, uint8_t *data) {
     784:	df 92       	push	r13
     786:	ef 92       	push	r14
     788:	ff 92       	push	r15
     78a:	0f 93       	push	r16
     78c:	1f 93       	push	r17
     78e:	cf 93       	push	r28
     790:	df 93       	push	r29
     792:	18 2f       	mov	r17, r24
     794:	d6 2e       	mov	r13, r22
     796:	d4 2f       	mov	r29, r20
     798:	c5 2f       	mov	r28, r21
	uint8_t i = 0;
	int8_t count = 0;
	if(length > 0) {
     79a:	66 23       	and	r22, r22
     79c:	51 f1       	breq	.+84     	; 0x7f2 <mpu6050_readBytes+0x6e>
		//request register
		i2c_start(MPU6050_ADDR | I2C_WRITE);
     79e:	80 ed       	ldi	r24, 0xD0	; 208
     7a0:	0e 94 0b 01 	call	0x216	; 0x216 <i2c_start>
		i2c_write(regAddr);
     7a4:	81 2f       	mov	r24, r17
     7a6:	0e 94 61 01 	call	0x2c2	; 0x2c2 <i2c_write>
	#else
		//round up by default
		__ticks_dc = (uint32_t)(ceil(fabs(__tmp)));
	#endif

	__builtin_avr_delay_cycles(__ticks_dc);
     7aa:	85 e3       	ldi	r24, 0x35	; 53
     7ac:	8a 95       	dec	r24
     7ae:	f1 f7       	brne	.-4      	; 0x7ac <mpu6050_readBytes+0x28>
     7b0:	00 00       	nop
		_delay_us(10);
		//read data
		i2c_start(MPU6050_ADDR | I2C_READ);
     7b2:	81 ed       	ldi	r24, 0xD1	; 209
     7b4:	0e 94 0b 01 	call	0x216	; 0x216 <i2c_start>
     7b8:	0d 2f       	mov	r16, r29
     7ba:	1c 2f       	mov	r17, r28
     7bc:	c0 e0       	ldi	r28, 0x00	; 0
     7be:	d0 e0       	ldi	r29, 0x00	; 0
		for(i=0; i<length; i++) {
			count++;
			if(i==length-1)
     7c0:	ed 2c       	mov	r14, r13
     7c2:	f1 2c       	mov	r15, r1
     7c4:	e1 e0       	ldi	r30, 0x01	; 1
     7c6:	ee 1a       	sub	r14, r30
     7c8:	f1 08       	sbc	r15, r1
     7ca:	ce 15       	cp	r28, r14
     7cc:	df 05       	cpc	r29, r15
     7ce:	29 f4       	brne	.+10     	; 0x7da <mpu6050_readBytes+0x56>
				data[i] = i2c_readNak();
     7d0:	0e 94 9c 01 	call	0x338	; 0x338 <i2c_readNak>
     7d4:	f8 01       	movw	r30, r16
     7d6:	80 83       	st	Z, r24
     7d8:	04 c0       	rjmp	.+8      	; 0x7e2 <mpu6050_readBytes+0x5e>
			else
				data[i] = i2c_readAck();
     7da:	0e 94 82 01 	call	0x304	; 0x304 <i2c_readAck>
     7de:	f8 01       	movw	r30, r16
     7e0:	80 83       	st	Z, r24
     7e2:	21 96       	adiw	r28, 0x01	; 1
     7e4:	0f 5f       	subi	r16, 0xFF	; 255
     7e6:	1f 4f       	sbci	r17, 0xFF	; 255
		i2c_start(MPU6050_ADDR | I2C_WRITE);
		i2c_write(regAddr);
		_delay_us(10);
		//read data
		i2c_start(MPU6050_ADDR | I2C_READ);
		for(i=0; i<length; i++) {
     7e8:	cd 15       	cp	r28, r13
     7ea:	78 f3       	brcs	.-34     	; 0x7ca <mpu6050_readBytes+0x46>
			if(i==length-1)
				data[i] = i2c_readNak();
			else
				data[i] = i2c_readAck();
		}
		i2c_stop();
     7ec:	0e 94 51 01 	call	0x2a2	; 0x2a2 <i2c_stop>
     7f0:	01 c0       	rjmp	.+2      	; 0x7f4 <mpu6050_readBytes+0x70>
/*
 * read bytes from chip register
 */
int8_t mpu6050_readBytes(uint8_t regAddr, uint8_t length, uint8_t *data) {
	uint8_t i = 0;
	int8_t count = 0;
     7f2:	d1 2c       	mov	r13, r1
				data[i] = i2c_readAck();
		}
		i2c_stop();
	}
	return count;
}
     7f4:	8d 2d       	mov	r24, r13
     7f6:	df 91       	pop	r29
     7f8:	cf 91       	pop	r28
     7fa:	1f 91       	pop	r17
     7fc:	0f 91       	pop	r16
     7fe:	ff 90       	pop	r15
     800:	ef 90       	pop	r14
     802:	df 90       	pop	r13
     804:	08 95       	ret

00000806 <mpu6050_readByte>:

/*
 * read 1 byte from chip register
 */
int8_t mpu6050_readByte(uint8_t regAddr, uint8_t *data) {
     806:	ab 01       	movw	r20, r22
    return mpu6050_readBytes(regAddr, 1, data);
     808:	61 e0       	ldi	r22, 0x01	; 1
     80a:	0e 94 c2 03 	call	0x784	; 0x784 <mpu6050_readBytes>
}
     80e:	08 95       	ret

00000810 <mpu6050_writeBytes>:

/*
 * write bytes to chip register
 */
void mpu6050_writeBytes(uint8_t regAddr, uint8_t length, uint8_t* data) {
     810:	ff 92       	push	r15
     812:	0f 93       	push	r16
     814:	1f 93       	push	r17
     816:	cf 93       	push	r28
     818:	df 93       	push	r29
     81a:	c8 2f       	mov	r28, r24
     81c:	06 2f       	mov	r16, r22
     81e:	f4 2e       	mov	r15, r20
     820:	15 2f       	mov	r17, r21
	if(length > 0) {
     822:	66 23       	and	r22, r22
     824:	89 f0       	breq	.+34     	; 0x848 <mpu6050_writeBytes+0x38>
		//write data
		i2c_start(MPU6050_ADDR | I2C_WRITE);
     826:	80 ed       	ldi	r24, 0xD0	; 208
     828:	0e 94 0b 01 	call	0x216	; 0x216 <i2c_start>
		i2c_write(regAddr); //reg
     82c:	8c 2f       	mov	r24, r28
     82e:	0e 94 61 01 	call	0x2c2	; 0x2c2 <i2c_write>
     832:	cf 2d       	mov	r28, r15
     834:	d1 2f       	mov	r29, r17
		for (uint8_t i = 0; i < length; i++) {
     836:	10 e0       	ldi	r17, 0x00	; 0
			i2c_write((uint8_t) data[i]);
     838:	89 91       	ld	r24, Y+
     83a:	0e 94 61 01 	call	0x2c2	; 0x2c2 <i2c_write>
void mpu6050_writeBytes(uint8_t regAddr, uint8_t length, uint8_t* data) {
	if(length > 0) {
		//write data
		i2c_start(MPU6050_ADDR | I2C_WRITE);
		i2c_write(regAddr); //reg
		for (uint8_t i = 0; i < length; i++) {
     83e:	1f 5f       	subi	r17, 0xFF	; 255
     840:	10 13       	cpse	r17, r16
     842:	fa cf       	rjmp	.-12     	; 0x838 <mpu6050_writeBytes+0x28>
			i2c_write((uint8_t) data[i]);
		}
		i2c_stop();
     844:	0e 94 51 01 	call	0x2a2	; 0x2a2 <i2c_stop>
	}
}
     848:	df 91       	pop	r29
     84a:	cf 91       	pop	r28
     84c:	1f 91       	pop	r17
     84e:	0f 91       	pop	r16
     850:	ff 90       	pop	r15
     852:	08 95       	ret

00000854 <mpu6050_writeByte>:

/*
 * write 1 byte to chip register
 */
void mpu6050_writeByte(uint8_t regAddr, uint8_t data) {
     854:	cf 93       	push	r28
     856:	df 93       	push	r29
     858:	1f 92       	push	r1
     85a:	cd b7       	in	r28, 0x3d	; 61
     85c:	de b7       	in	r29, 0x3e	; 62
     85e:	69 83       	std	Y+1, r22	; 0x01
    return mpu6050_writeBytes(regAddr, 1, &data);
     860:	ae 01       	movw	r20, r28
     862:	4f 5f       	subi	r20, 0xFF	; 255
     864:	5f 4f       	sbci	r21, 0xFF	; 255
     866:	61 e0       	ldi	r22, 0x01	; 1
     868:	0e 94 08 04 	call	0x810	; 0x810 <mpu6050_writeBytes>
}
     86c:	0f 90       	pop	r0
     86e:	df 91       	pop	r29
     870:	cf 91       	pop	r28
     872:	08 95       	ret

00000874 <mpu6050_readBit>:
}

/*
 * read 1 bit from chip register
 */
int8_t mpu6050_readBit(uint8_t regAddr, uint8_t bitNum, uint8_t *data) {
     874:	ff 92       	push	r15
     876:	0f 93       	push	r16
     878:	1f 93       	push	r17
     87a:	cf 93       	push	r28
     87c:	df 93       	push	r29
     87e:	1f 92       	push	r1
     880:	cd b7       	in	r28, 0x3d	; 61
     882:	de b7       	in	r29, 0x3e	; 62
     884:	f6 2e       	mov	r15, r22
     886:	8a 01       	movw	r16, r20
    uint8_t b;
    uint8_t count = mpu6050_readByte(regAddr, &b);
     888:	be 01       	movw	r22, r28
     88a:	6f 5f       	subi	r22, 0xFF	; 255
     88c:	7f 4f       	sbci	r23, 0xFF	; 255
     88e:	0e 94 03 04 	call	0x806	; 0x806 <mpu6050_readByte>
    *data = b & (1 << bitNum);
     892:	21 e0       	ldi	r18, 0x01	; 1
     894:	30 e0       	ldi	r19, 0x00	; 0
     896:	b9 01       	movw	r22, r18
     898:	02 c0       	rjmp	.+4      	; 0x89e <mpu6050_readBit+0x2a>
     89a:	66 0f       	add	r22, r22
     89c:	77 1f       	adc	r23, r23
     89e:	fa 94       	dec	r15
     8a0:	e2 f7       	brpl	.-8      	; 0x89a <mpu6050_readBit+0x26>
     8a2:	99 81       	ldd	r25, Y+1	; 0x01
     8a4:	69 23       	and	r22, r25
     8a6:	f8 01       	movw	r30, r16
     8a8:	60 83       	st	Z, r22
    return count;
}
     8aa:	0f 90       	pop	r0
     8ac:	df 91       	pop	r29
     8ae:	cf 91       	pop	r28
     8b0:	1f 91       	pop	r17
     8b2:	0f 91       	pop	r16
     8b4:	ff 90       	pop	r15
     8b6:	08 95       	ret

000008b8 <mpu6050_writeBits>:

/*
 * write bit/bits to chip register
 */
void mpu6050_writeBits(uint8_t regAddr, uint8_t bitStart, uint8_t length, uint8_t data) {
     8b8:	ef 92       	push	r14
     8ba:	ff 92       	push	r15
     8bc:	0f 93       	push	r16
     8be:	1f 93       	push	r17
     8c0:	cf 93       	push	r28
     8c2:	df 93       	push	r29
     8c4:	1f 92       	push	r1
     8c6:	cd b7       	in	r28, 0x3d	; 61
     8c8:	de b7       	in	r29, 0x3e	; 62
     8ca:	18 2f       	mov	r17, r24
     8cc:	e6 2e       	mov	r14, r22
     8ce:	f4 2e       	mov	r15, r20
     8d0:	02 2f       	mov	r16, r18
    //    xxx   args: bitStart=4, length=3
    // 00011100 mask byte
    // 10101111 original value (sample)
    // 10100011 original & ~mask
    // 10101011 masked | value
	if(length > 0) {
     8d2:	44 23       	and	r20, r20
     8d4:	91 f1       	breq	.+100    	; 0x93a <mpu6050_writeBits+0x82>
		uint8_t b = 0;
     8d6:	19 82       	std	Y+1, r1	; 0x01
		if (mpu6050_readByte(regAddr, &b) != 0) { //get current data
     8d8:	be 01       	movw	r22, r28
     8da:	6f 5f       	subi	r22, 0xFF	; 255
     8dc:	7f 4f       	sbci	r23, 0xFF	; 255
     8de:	0e 94 03 04 	call	0x806	; 0x806 <mpu6050_readByte>
     8e2:	88 23       	and	r24, r24
     8e4:	51 f1       	breq	.+84     	; 0x93a <mpu6050_writeBits+0x82>
			uint8_t mask = ((1 << length) - 1) << (bitStart - length + 1);
     8e6:	6e 2d       	mov	r22, r14
     8e8:	70 e0       	ldi	r23, 0x00	; 0
     8ea:	6f 19       	sub	r22, r15
     8ec:	71 09       	sbc	r23, r1
     8ee:	6f 5f       	subi	r22, 0xFF	; 255
     8f0:	7f 4f       	sbci	r23, 0xFF	; 255
     8f2:	e1 e0       	ldi	r30, 0x01	; 1
     8f4:	f0 e0       	ldi	r31, 0x00	; 0
     8f6:	af 01       	movw	r20, r30
     8f8:	02 c0       	rjmp	.+4      	; 0x8fe <mpu6050_writeBits+0x46>
     8fa:	44 0f       	add	r20, r20
     8fc:	55 1f       	adc	r21, r21
     8fe:	fa 94       	dec	r15
     900:	e2 f7       	brpl	.-8      	; 0x8fa <mpu6050_writeBits+0x42>
     902:	41 50       	subi	r20, 0x01	; 1
     904:	51 09       	sbc	r21, r1
     906:	06 2e       	mov	r0, r22
     908:	02 c0       	rjmp	.+4      	; 0x90e <mpu6050_writeBits+0x56>
     90a:	44 0f       	add	r20, r20
     90c:	55 1f       	adc	r21, r21
     90e:	0a 94       	dec	r0
     910:	e2 f7       	brpl	.-8      	; 0x90a <mpu6050_writeBits+0x52>
			data <<= (bitStart - length + 1); // shift data into correct position
     912:	20 2f       	mov	r18, r16
     914:	30 e0       	ldi	r19, 0x00	; 0
     916:	c9 01       	movw	r24, r18
     918:	02 c0       	rjmp	.+4      	; 0x91e <mpu6050_writeBits+0x66>
     91a:	88 0f       	add	r24, r24
     91c:	99 1f       	adc	r25, r25
     91e:	6a 95       	dec	r22
     920:	e2 f7       	brpl	.-8      	; 0x91a <mpu6050_writeBits+0x62>
     922:	bc 01       	movw	r22, r24
			data &= mask; // zero all non-important bits in data
			b &= ~(mask); // zero all important bits in existing byte
     924:	94 2f       	mov	r25, r20
     926:	90 95       	com	r25
     928:	89 81       	ldd	r24, Y+1	; 0x01
     92a:	89 23       	and	r24, r25
	if(length > 0) {
		uint8_t b = 0;
		if (mpu6050_readByte(regAddr, &b) != 0) { //get current data
			uint8_t mask = ((1 << length) - 1) << (bitStart - length + 1);
			data <<= (bitStart - length + 1); // shift data into correct position
			data &= mask; // zero all non-important bits in data
     92c:	46 23       	and	r20, r22
			b &= ~(mask); // zero all important bits in existing byte
			b |= data; // combine data with existing byte
     92e:	68 2f       	mov	r22, r24
     930:	64 2b       	or	r22, r20
     932:	69 83       	std	Y+1, r22	; 0x01
			mpu6050_writeByte(regAddr, b);
     934:	81 2f       	mov	r24, r17
     936:	0e 94 2a 04 	call	0x854	; 0x854 <mpu6050_writeByte>
		}
	}
}
     93a:	0f 90       	pop	r0
     93c:	df 91       	pop	r29
     93e:	cf 91       	pop	r28
     940:	1f 91       	pop	r17
     942:	0f 91       	pop	r16
     944:	ff 90       	pop	r15
     946:	ef 90       	pop	r14
     948:	08 95       	ret

0000094a <mpu6050_writeBit>:

/*
 * write one bit to chip register
 */
void mpu6050_writeBit(uint8_t regAddr, uint8_t bitNum, uint8_t data) {
     94a:	ff 92       	push	r15
     94c:	0f 93       	push	r16
     94e:	1f 93       	push	r17
     950:	cf 93       	push	r28
     952:	df 93       	push	r29
     954:	1f 92       	push	r1
     956:	cd b7       	in	r28, 0x3d	; 61
     958:	de b7       	in	r29, 0x3e	; 62
     95a:	18 2f       	mov	r17, r24
     95c:	06 2f       	mov	r16, r22
     95e:	f4 2e       	mov	r15, r20
    uint8_t b;
    mpu6050_readByte(regAddr, &b);
     960:	be 01       	movw	r22, r28
     962:	6f 5f       	subi	r22, 0xFF	; 255
     964:	7f 4f       	sbci	r23, 0xFF	; 255
     966:	0e 94 03 04 	call	0x806	; 0x806 <mpu6050_readByte>
    b = (data != 0) ? (b | (1 << bitNum)) : (b & ~(1 << bitNum));
     96a:	ff 20       	and	r15, r15
     96c:	59 f0       	breq	.+22     	; 0x984 <mpu6050_writeBit+0x3a>
     96e:	21 e0       	ldi	r18, 0x01	; 1
     970:	30 e0       	ldi	r19, 0x00	; 0
     972:	b9 01       	movw	r22, r18
     974:	02 c0       	rjmp	.+4      	; 0x97a <mpu6050_writeBit+0x30>
     976:	66 0f       	add	r22, r22
     978:	77 1f       	adc	r23, r23
     97a:	0a 95       	dec	r16
     97c:	e2 f7       	brpl	.-8      	; 0x976 <mpu6050_writeBit+0x2c>
     97e:	89 81       	ldd	r24, Y+1	; 0x01
     980:	68 2b       	or	r22, r24
     982:	0b c0       	rjmp	.+22     	; 0x99a <mpu6050_writeBit+0x50>
     984:	21 e0       	ldi	r18, 0x01	; 1
     986:	30 e0       	ldi	r19, 0x00	; 0
     988:	b9 01       	movw	r22, r18
     98a:	02 c0       	rjmp	.+4      	; 0x990 <mpu6050_writeBit+0x46>
     98c:	66 0f       	add	r22, r22
     98e:	77 1f       	adc	r23, r23
     990:	0a 95       	dec	r16
     992:	e2 f7       	brpl	.-8      	; 0x98c <mpu6050_writeBit+0x42>
     994:	60 95       	com	r22
     996:	89 81       	ldd	r24, Y+1	; 0x01
     998:	68 23       	and	r22, r24
     99a:	69 83       	std	Y+1, r22	; 0x01
    mpu6050_writeByte(regAddr, b);
     99c:	81 2f       	mov	r24, r17
     99e:	0e 94 2a 04 	call	0x854	; 0x854 <mpu6050_writeByte>
}
     9a2:	0f 90       	pop	r0
     9a4:	df 91       	pop	r29
     9a6:	cf 91       	pop	r28
     9a8:	1f 91       	pop	r17
     9aa:	0f 91       	pop	r16
     9ac:	ff 90       	pop	r15
     9ae:	08 95       	ret

000009b0 <mpu6050_setSleepDisabled>:

/*
 * set sleep disabled
 */
void mpu6050_setSleepDisabled() {
	mpu6050_writeBit(MPU6050_RA_PWR_MGMT_1, MPU6050_PWR1_SLEEP_BIT, 0);
     9b0:	40 e0       	ldi	r20, 0x00	; 0
     9b2:	66 e0       	ldi	r22, 0x06	; 6
     9b4:	8b e6       	ldi	r24, 0x6B	; 107
     9b6:	0e 94 a5 04 	call	0x94a	; 0x94a <mpu6050_writeBit>
     9ba:	08 95       	ret

000009bc <mpu6050_init>:
 * initialize the accel and gyro
 */
void mpu6050_init() {
	#if MPU6050_I2CINIT == 1
	//init i2c
	i2c_init();
     9bc:	0e 94 05 01 	call	0x20a	; 0x20a <i2c_init>
     9c0:	25 e3       	ldi	r18, 0x35	; 53
     9c2:	2a 95       	dec	r18
     9c4:	f1 f7       	brne	.-4      	; 0x9c2 <mpu6050_init+0x6>
     9c6:	00 00       	nop
	#else
		//round up by default
		__ticks_dc = (uint32_t)(ceil(fabs(__tmp)));
	#endif

	__builtin_avr_delay_cycles(__ticks_dc);
     9c8:	8f ef       	ldi	r24, 0xFF	; 255
     9ca:	91 ee       	ldi	r25, 0xE1	; 225
     9cc:	24 e0       	ldi	r18, 0x04	; 4
     9ce:	81 50       	subi	r24, 0x01	; 1
     9d0:	90 40       	sbci	r25, 0x00	; 0
     9d2:	20 40       	sbci	r18, 0x00	; 0
     9d4:	e1 f7       	brne	.-8      	; 0x9ce <mpu6050_init+0x12>
     9d6:	00 c0       	rjmp	.+0      	; 0x9d8 <mpu6050_init+0x1c>
     9d8:	00 00       	nop

	//allow mpu6050 chip clocks to start up
	_delay_ms(100);

	//set sleep disabled
	mpu6050_setSleepDisabled();
     9da:	0e 94 d8 04 	call	0x9b0	; 0x9b0 <mpu6050_setSleepDisabled>
     9de:	8f e3       	ldi	r24, 0x3F	; 63
     9e0:	9c e9       	ldi	r25, 0x9C	; 156
     9e2:	01 97       	sbiw	r24, 0x01	; 1
     9e4:	f1 f7       	brne	.-4      	; 0x9e2 <mpu6050_init+0x26>
     9e6:	00 c0       	rjmp	.+0      	; 0x9e8 <mpu6050_init+0x2c>
     9e8:	00 00       	nop
	_delay_ms(10);

	//set clock source
	//  it is highly recommended that the device be configured to use one of the gyroscopes (or an external clock source)
	//  as the clock reference for improved stability
	mpu6050_writeBits(MPU6050_RA_PWR_MGMT_1, MPU6050_PWR1_CLKSEL_BIT, MPU6050_PWR1_CLKSEL_LENGTH, MPU6050_CLOCK_PLL_XGYRO);
     9ea:	21 e0       	ldi	r18, 0x01	; 1
     9ec:	43 e0       	ldi	r20, 0x03	; 3
     9ee:	62 e0       	ldi	r22, 0x02	; 2
     9f0:	8b e6       	ldi	r24, 0x6B	; 107
     9f2:	0e 94 5c 04 	call	0x8b8	; 0x8b8 <mpu6050_writeBits>
	//set DLPF bandwidth to 42Hz
	mpu6050_writeBits(MPU6050_RA_CONFIG, MPU6050_CFG_DLPF_CFG_BIT, MPU6050_CFG_DLPF_CFG_LENGTH, MPU6050_DLPF_BW_42);
     9f6:	23 e0       	ldi	r18, 0x03	; 3
     9f8:	43 e0       	ldi	r20, 0x03	; 3
     9fa:	62 e0       	ldi	r22, 0x02	; 2
     9fc:	8a e1       	ldi	r24, 0x1A	; 26
     9fe:	0e 94 5c 04 	call	0x8b8	; 0x8b8 <mpu6050_writeBits>
    //set sampe rate
	mpu6050_writeByte(MPU6050_RA_SMPLRT_DIV, 4); //1khz / (1 + 4) = 200Hz
     a02:	64 e0       	ldi	r22, 0x04	; 4
     a04:	89 e1       	ldi	r24, 0x19	; 25
     a06:	0e 94 2a 04 	call	0x854	; 0x854 <mpu6050_writeByte>
	//set gyro range
	mpu6050_writeBits(MPU6050_RA_GYRO_CONFIG, MPU6050_GCONFIG_FS_SEL_BIT, MPU6050_GCONFIG_FS_SEL_LENGTH, MPU6050_GYRO_FS);
     a0a:	23 e0       	ldi	r18, 0x03	; 3
     a0c:	42 e0       	ldi	r20, 0x02	; 2
     a0e:	64 e0       	ldi	r22, 0x04	; 4
     a10:	8b e1       	ldi	r24, 0x1B	; 27
     a12:	0e 94 5c 04 	call	0x8b8	; 0x8b8 <mpu6050_writeBits>
	//set accel range
	mpu6050_writeBits(MPU6050_RA_ACCEL_CONFIG, MPU6050_ACONFIG_AFS_SEL_BIT, MPU6050_ACONFIG_AFS_SEL_LENGTH, MPU6050_ACCEL_FS);
     a16:	20 e0       	ldi	r18, 0x00	; 0
     a18:	42 e0       	ldi	r20, 0x02	; 2
     a1a:	64 e0       	ldi	r22, 0x04	; 4
     a1c:	8c e1       	ldi	r24, 0x1C	; 28
     a1e:	0e 94 5c 04 	call	0x8b8	; 0x8b8 <mpu6050_writeBits>

	#if MPU6050_GETATTITUDE == 1
	MPU6050_TIMER0INIT
     a22:	85 b5       	in	r24, 0x25	; 37
     a24:	85 60       	ori	r24, 0x05	; 5
     a26:	85 bd       	out	0x25, r24	; 37
     a28:	ee e6       	ldi	r30, 0x6E	; 110
     a2a:	f0 e0       	ldi	r31, 0x00	; 0
     a2c:	80 81       	ld	r24, Z
     a2e:	81 60       	ori	r24, 0x01	; 1
     a30:	80 83       	st	Z, r24
     a32:	08 95       	ret

00000a34 <mpu6050_mahonyUpdate>:
volatile float q0 = 1.0f, q1 = 0.0f, q2 = 0.0f, q3 = 0.0f;
volatile float integralFBx = 0.0f,  integralFBy = 0.0f, integralFBz = 0.0f;
/*
 * Mahony update function (for 6DOF)
 */
void mpu6050_mahonyUpdate(float gx, float gy, float gz, float ax, float ay, float az) {
     a34:	4f 92       	push	r4
     a36:	5f 92       	push	r5
     a38:	6f 92       	push	r6
     a3a:	7f 92       	push	r7
     a3c:	8f 92       	push	r8
     a3e:	9f 92       	push	r9
     a40:	af 92       	push	r10
     a42:	bf 92       	push	r11
     a44:	cf 92       	push	r12
     a46:	df 92       	push	r13
     a48:	ef 92       	push	r14
     a4a:	ff 92       	push	r15
     a4c:	0f 93       	push	r16
     a4e:	1f 93       	push	r17
     a50:	cf 93       	push	r28
     a52:	df 93       	push	r29
     a54:	cd b7       	in	r28, 0x3d	; 61
     a56:	de b7       	in	r29, 0x3e	; 62
     a58:	a4 97       	sbiw	r28, 0x24	; 36
     a5a:	0f b6       	in	r0, 0x3f	; 63
     a5c:	f8 94       	cli
     a5e:	de bf       	out	0x3e, r29	; 62
     a60:	0f be       	out	0x3f, r0	; 63
     a62:	cd bf       	out	0x3d, r28	; 61
     a64:	69 87       	std	Y+9, r22	; 0x09
     a66:	7a 87       	std	Y+10, r23	; 0x0a
     a68:	8b 87       	std	Y+11, r24	; 0x0b
     a6a:	9c 87       	std	Y+12, r25	; 0x0c
     a6c:	2d 87       	std	Y+13, r18	; 0x0d
     a6e:	3e 87       	std	Y+14, r19	; 0x0e
     a70:	4f 87       	std	Y+15, r20	; 0x0f
     a72:	58 8b       	std	Y+16, r21	; 0x10
     a74:	e9 8a       	std	Y+17, r14	; 0x11
     a76:	fa 8a       	std	Y+18, r15	; 0x12
     a78:	0b 8b       	std	Y+19, r16	; 0x13
     a7a:	1c 8b       	std	Y+20, r17	; 0x14
	float halfvx, halfvy, halfvz;
	float halfex, halfey, halfez;
	float qa, qb, qc;

	// Compute feedback only if accelerometer measurement valid (avoids NaN in accelerometer normalisation)
	if(!((ax == 0.0f) && (ay == 0.0f) && (az == 0.0f))) {
     a7c:	20 e0       	ldi	r18, 0x00	; 0
     a7e:	30 e0       	ldi	r19, 0x00	; 0
     a80:	a9 01       	movw	r20, r18
     a82:	c6 01       	movw	r24, r12
     a84:	b5 01       	movw	r22, r10
     a86:	0e 94 22 0e 	call	0x1c44	; 0x1c44 <__cmpsf2>
     a8a:	81 11       	cpse	r24, r1
     a8c:	17 c0       	rjmp	.+46     	; 0xabc <mpu6050_mahonyUpdate+0x88>
     a8e:	20 e0       	ldi	r18, 0x00	; 0
     a90:	30 e0       	ldi	r19, 0x00	; 0
     a92:	a9 01       	movw	r20, r18
     a94:	6f a9       	ldd	r22, Y+55	; 0x37
     a96:	78 ad       	ldd	r23, Y+56	; 0x38
     a98:	89 ad       	ldd	r24, Y+57	; 0x39
     a9a:	9a ad       	ldd	r25, Y+58	; 0x3a
     a9c:	0e 94 22 0e 	call	0x1c44	; 0x1c44 <__cmpsf2>
     aa0:	81 11       	cpse	r24, r1
     aa2:	0c c0       	rjmp	.+24     	; 0xabc <mpu6050_mahonyUpdate+0x88>
     aa4:	20 e0       	ldi	r18, 0x00	; 0
     aa6:	30 e0       	ldi	r19, 0x00	; 0
     aa8:	a9 01       	movw	r20, r18
     aaa:	6b ad       	ldd	r22, Y+59	; 0x3b
     aac:	7c ad       	ldd	r23, Y+60	; 0x3c
     aae:	8d ad       	ldd	r24, Y+61	; 0x3d
     ab0:	9e ad       	ldd	r25, Y+62	; 0x3e
     ab2:	0e 94 22 0e 	call	0x1c44	; 0x1c44 <__cmpsf2>
     ab6:	88 23       	and	r24, r24
     ab8:	09 f4       	brne	.+2      	; 0xabc <mpu6050_mahonyUpdate+0x88>
     aba:	04 c2       	rjmp	.+1032   	; 0xec4 <mpu6050_mahonyUpdate+0x490>

		// Normalise accelerometer measurement
		norm = sqrt(ax * ax + ay * ay + az * az);
     abc:	a6 01       	movw	r20, r12
     abe:	95 01       	movw	r18, r10
     ac0:	c6 01       	movw	r24, r12
     ac2:	b5 01       	movw	r22, r10
     ac4:	0e 94 c9 0f 	call	0x1f92	; 0x1f92 <__mulsf3>
     ac8:	2b 01       	movw	r4, r22
     aca:	3c 01       	movw	r6, r24
     acc:	2f a9       	ldd	r18, Y+55	; 0x37
     ace:	38 ad       	ldd	r19, Y+56	; 0x38
     ad0:	49 ad       	ldd	r20, Y+57	; 0x39
     ad2:	5a ad       	ldd	r21, Y+58	; 0x3a
     ad4:	ca 01       	movw	r24, r20
     ad6:	b9 01       	movw	r22, r18
     ad8:	0e 94 c9 0f 	call	0x1f92	; 0x1f92 <__mulsf3>
     adc:	9b 01       	movw	r18, r22
     ade:	ac 01       	movw	r20, r24
     ae0:	c3 01       	movw	r24, r6
     ae2:	b2 01       	movw	r22, r4
     ae4:	0e 94 45 0d 	call	0x1a8a	; 0x1a8a <__addsf3>
     ae8:	2b 01       	movw	r4, r22
     aea:	3c 01       	movw	r6, r24
     aec:	2b ad       	ldd	r18, Y+59	; 0x3b
     aee:	3c ad       	ldd	r19, Y+60	; 0x3c
     af0:	4d ad       	ldd	r20, Y+61	; 0x3d
     af2:	5e ad       	ldd	r21, Y+62	; 0x3e
     af4:	ca 01       	movw	r24, r20
     af6:	b9 01       	movw	r22, r18
     af8:	0e 94 c9 0f 	call	0x1f92	; 0x1f92 <__mulsf3>
     afc:	9b 01       	movw	r18, r22
     afe:	ac 01       	movw	r20, r24
     b00:	c3 01       	movw	r24, r6
     b02:	b2 01       	movw	r22, r4
     b04:	0e 94 45 0d 	call	0x1a8a	; 0x1a8a <__addsf3>
     b08:	0e 94 30 10 	call	0x2060	; 0x2060 <sqrt>
     b0c:	2b 01       	movw	r4, r22
     b0e:	3c 01       	movw	r6, r24
		ax /= norm;
     b10:	9b 01       	movw	r18, r22
     b12:	ac 01       	movw	r20, r24
     b14:	c6 01       	movw	r24, r12
     b16:	b5 01       	movw	r22, r10
     b18:	0e 94 26 0e 	call	0x1c4c	; 0x1c4c <__divsf3>
     b1c:	6d 8b       	std	Y+21, r22	; 0x15
     b1e:	7e 8b       	std	Y+22, r23	; 0x16
     b20:	8f 8b       	std	Y+23, r24	; 0x17
     b22:	98 8f       	std	Y+24, r25	; 0x18
		ay /= norm;
     b24:	a3 01       	movw	r20, r6
     b26:	92 01       	movw	r18, r4
     b28:	6f a9       	ldd	r22, Y+55	; 0x37
     b2a:	78 ad       	ldd	r23, Y+56	; 0x38
     b2c:	89 ad       	ldd	r24, Y+57	; 0x39
     b2e:	9a ad       	ldd	r25, Y+58	; 0x3a
     b30:	0e 94 26 0e 	call	0x1c4c	; 0x1c4c <__divsf3>
     b34:	69 83       	std	Y+1, r22	; 0x01
     b36:	7a 83       	std	Y+2, r23	; 0x02
     b38:	8b 83       	std	Y+3, r24	; 0x03
     b3a:	9c 83       	std	Y+4, r25	; 0x04
		az /= norm;
     b3c:	a3 01       	movw	r20, r6
     b3e:	92 01       	movw	r18, r4
     b40:	6b ad       	ldd	r22, Y+59	; 0x3b
     b42:	7c ad       	ldd	r23, Y+60	; 0x3c
     b44:	8d ad       	ldd	r24, Y+61	; 0x3d
     b46:	9e ad       	ldd	r25, Y+62	; 0x3e
     b48:	0e 94 26 0e 	call	0x1c4c	; 0x1c4c <__divsf3>
     b4c:	6d 83       	std	Y+5, r22	; 0x05
     b4e:	7e 83       	std	Y+6, r23	; 0x06
     b50:	8f 83       	std	Y+7, r24	; 0x07
     b52:	98 87       	std	Y+8, r25	; 0x08

		// Estimated direction of gravity and vector perpendicular to magnetic flux
		halfvx = q1 * q3 - q0 * q2;
     b54:	60 91 3c 01 	lds	r22, 0x013C
     b58:	70 91 3d 01 	lds	r23, 0x013D
     b5c:	80 91 3e 01 	lds	r24, 0x013E
     b60:	90 91 3f 01 	lds	r25, 0x013F
     b64:	20 91 34 01 	lds	r18, 0x0134
     b68:	30 91 35 01 	lds	r19, 0x0135
     b6c:	40 91 36 01 	lds	r20, 0x0136
     b70:	50 91 37 01 	lds	r21, 0x0137
     b74:	80 90 00 01 	lds	r8, 0x0100
     b78:	90 90 01 01 	lds	r9, 0x0101
     b7c:	a0 90 02 01 	lds	r10, 0x0102
     b80:	b0 90 03 01 	lds	r11, 0x0103
     b84:	40 90 38 01 	lds	r4, 0x0138
     b88:	50 90 39 01 	lds	r5, 0x0139
     b8c:	60 90 3a 01 	lds	r6, 0x013A
     b90:	70 90 3b 01 	lds	r7, 0x013B
     b94:	0e 94 c9 0f 	call	0x1f92	; 0x1f92 <__mulsf3>
     b98:	6b 01       	movw	r12, r22
     b9a:	7c 01       	movw	r14, r24
     b9c:	a3 01       	movw	r20, r6
     b9e:	92 01       	movw	r18, r4
     ba0:	c5 01       	movw	r24, r10
     ba2:	b4 01       	movw	r22, r8
     ba4:	0e 94 c9 0f 	call	0x1f92	; 0x1f92 <__mulsf3>
     ba8:	9b 01       	movw	r18, r22
     baa:	ac 01       	movw	r20, r24
     bac:	c7 01       	movw	r24, r14
     bae:	b6 01       	movw	r22, r12
     bb0:	0e 94 44 0d 	call	0x1a88	; 0x1a88 <__subsf3>
     bb4:	69 8f       	std	Y+25, r22	; 0x19
     bb6:	7a 8f       	std	Y+26, r23	; 0x1a
     bb8:	8b 8f       	std	Y+27, r24	; 0x1b
     bba:	9c 8f       	std	Y+28, r25	; 0x1c
		halfvy = q0 * q1 + q2 * q3;
     bbc:	60 91 00 01 	lds	r22, 0x0100
     bc0:	70 91 01 01 	lds	r23, 0x0101
     bc4:	80 91 02 01 	lds	r24, 0x0102
     bc8:	90 91 03 01 	lds	r25, 0x0103
     bcc:	20 91 3c 01 	lds	r18, 0x013C
     bd0:	30 91 3d 01 	lds	r19, 0x013D
     bd4:	40 91 3e 01 	lds	r20, 0x013E
     bd8:	50 91 3f 01 	lds	r21, 0x013F
     bdc:	80 90 38 01 	lds	r8, 0x0138
     be0:	90 90 39 01 	lds	r9, 0x0139
     be4:	a0 90 3a 01 	lds	r10, 0x013A
     be8:	b0 90 3b 01 	lds	r11, 0x013B
     bec:	40 90 34 01 	lds	r4, 0x0134
     bf0:	50 90 35 01 	lds	r5, 0x0135
     bf4:	60 90 36 01 	lds	r6, 0x0136
     bf8:	70 90 37 01 	lds	r7, 0x0137
     bfc:	0e 94 c9 0f 	call	0x1f92	; 0x1f92 <__mulsf3>
     c00:	6b 01       	movw	r12, r22
     c02:	7c 01       	movw	r14, r24
     c04:	a3 01       	movw	r20, r6
     c06:	92 01       	movw	r18, r4
     c08:	c5 01       	movw	r24, r10
     c0a:	b4 01       	movw	r22, r8
     c0c:	0e 94 c9 0f 	call	0x1f92	; 0x1f92 <__mulsf3>
     c10:	9b 01       	movw	r18, r22
     c12:	ac 01       	movw	r20, r24
     c14:	c7 01       	movw	r24, r14
     c16:	b6 01       	movw	r22, r12
     c18:	0e 94 45 0d 	call	0x1a8a	; 0x1a8a <__addsf3>
     c1c:	6d 8f       	std	Y+29, r22	; 0x1d
     c1e:	7e 8f       	std	Y+30, r23	; 0x1e
     c20:	8f 8f       	std	Y+31, r24	; 0x1f
     c22:	98 a3       	std	Y+32, r25	; 0x20
		halfvz = q0 * q0 - 0.5f + q3 * q3;
     c24:	60 91 00 01 	lds	r22, 0x0100
     c28:	70 91 01 01 	lds	r23, 0x0101
     c2c:	80 91 02 01 	lds	r24, 0x0102
     c30:	90 91 03 01 	lds	r25, 0x0103
     c34:	20 91 00 01 	lds	r18, 0x0100
     c38:	30 91 01 01 	lds	r19, 0x0101
     c3c:	40 91 02 01 	lds	r20, 0x0102
     c40:	50 91 03 01 	lds	r21, 0x0103
     c44:	80 90 34 01 	lds	r8, 0x0134
     c48:	90 90 35 01 	lds	r9, 0x0135
     c4c:	a0 90 36 01 	lds	r10, 0x0136
     c50:	b0 90 37 01 	lds	r11, 0x0137
     c54:	40 90 34 01 	lds	r4, 0x0134
     c58:	50 90 35 01 	lds	r5, 0x0135
     c5c:	60 90 36 01 	lds	r6, 0x0136
     c60:	70 90 37 01 	lds	r7, 0x0137
     c64:	0e 94 c9 0f 	call	0x1f92	; 0x1f92 <__mulsf3>
     c68:	20 e0       	ldi	r18, 0x00	; 0
     c6a:	30 e0       	ldi	r19, 0x00	; 0
     c6c:	40 e0       	ldi	r20, 0x00	; 0
     c6e:	5f e3       	ldi	r21, 0x3F	; 63
     c70:	0e 94 44 0d 	call	0x1a88	; 0x1a88 <__subsf3>
     c74:	6b 01       	movw	r12, r22
     c76:	7c 01       	movw	r14, r24
     c78:	a3 01       	movw	r20, r6
     c7a:	92 01       	movw	r18, r4
     c7c:	c5 01       	movw	r24, r10
     c7e:	b4 01       	movw	r22, r8
     c80:	0e 94 c9 0f 	call	0x1f92	; 0x1f92 <__mulsf3>
     c84:	9b 01       	movw	r18, r22
     c86:	ac 01       	movw	r20, r24
     c88:	c7 01       	movw	r24, r14
     c8a:	b6 01       	movw	r22, r12
     c8c:	0e 94 45 0d 	call	0x1a8a	; 0x1a8a <__addsf3>
     c90:	6b 01       	movw	r12, r22
     c92:	7c 01       	movw	r14, r24

		// Error is sum of cross product between estimated and measured direction of gravity
		halfex = (ay * halfvz - az * halfvy);
     c94:	9b 01       	movw	r18, r22
     c96:	ac 01       	movw	r20, r24
     c98:	69 81       	ldd	r22, Y+1	; 0x01
     c9a:	7a 81       	ldd	r23, Y+2	; 0x02
     c9c:	8b 81       	ldd	r24, Y+3	; 0x03
     c9e:	9c 81       	ldd	r25, Y+4	; 0x04
     ca0:	0e 94 c9 0f 	call	0x1f92	; 0x1f92 <__mulsf3>
     ca4:	4b 01       	movw	r8, r22
     ca6:	5c 01       	movw	r10, r24
     ca8:	2d 8d       	ldd	r18, Y+29	; 0x1d
     caa:	3e 8d       	ldd	r19, Y+30	; 0x1e
     cac:	4f 8d       	ldd	r20, Y+31	; 0x1f
     cae:	58 a1       	ldd	r21, Y+32	; 0x20
     cb0:	6d 81       	ldd	r22, Y+5	; 0x05
     cb2:	7e 81       	ldd	r23, Y+6	; 0x06
     cb4:	8f 81       	ldd	r24, Y+7	; 0x07
     cb6:	98 85       	ldd	r25, Y+8	; 0x08
     cb8:	0e 94 c9 0f 	call	0x1f92	; 0x1f92 <__mulsf3>
     cbc:	9b 01       	movw	r18, r22
     cbe:	ac 01       	movw	r20, r24
     cc0:	c5 01       	movw	r24, r10
     cc2:	b4 01       	movw	r22, r8
     cc4:	0e 94 44 0d 	call	0x1a88	; 0x1a88 <__subsf3>
     cc8:	69 a3       	std	Y+33, r22	; 0x21
     cca:	7a a3       	std	Y+34, r23	; 0x22
     ccc:	8b a3       	std	Y+35, r24	; 0x23
     cce:	9c a3       	std	Y+36, r25	; 0x24
		halfey = (az * halfvx - ax * halfvz);
     cd0:	29 8d       	ldd	r18, Y+25	; 0x19
     cd2:	3a 8d       	ldd	r19, Y+26	; 0x1a
     cd4:	4b 8d       	ldd	r20, Y+27	; 0x1b
     cd6:	5c 8d       	ldd	r21, Y+28	; 0x1c
     cd8:	6d 81       	ldd	r22, Y+5	; 0x05
     cda:	7e 81       	ldd	r23, Y+6	; 0x06
     cdc:	8f 81       	ldd	r24, Y+7	; 0x07
     cde:	98 85       	ldd	r25, Y+8	; 0x08
     ce0:	0e 94 c9 0f 	call	0x1f92	; 0x1f92 <__mulsf3>
     ce4:	4b 01       	movw	r8, r22
     ce6:	5c 01       	movw	r10, r24
     ce8:	a7 01       	movw	r20, r14
     cea:	96 01       	movw	r18, r12
     cec:	6d 89       	ldd	r22, Y+21	; 0x15
     cee:	7e 89       	ldd	r23, Y+22	; 0x16
     cf0:	8f 89       	ldd	r24, Y+23	; 0x17
     cf2:	98 8d       	ldd	r25, Y+24	; 0x18
     cf4:	0e 94 c9 0f 	call	0x1f92	; 0x1f92 <__mulsf3>
     cf8:	9b 01       	movw	r18, r22
     cfa:	ac 01       	movw	r20, r24
     cfc:	c5 01       	movw	r24, r10
     cfe:	b4 01       	movw	r22, r8
     d00:	0e 94 44 0d 	call	0x1a88	; 0x1a88 <__subsf3>
     d04:	2b 01       	movw	r4, r22
     d06:	3c 01       	movw	r6, r24
		halfez = (ax * halfvy - ay * halfvx);
     d08:	2d 8d       	ldd	r18, Y+29	; 0x1d
     d0a:	3e 8d       	ldd	r19, Y+30	; 0x1e
     d0c:	4f 8d       	ldd	r20, Y+31	; 0x1f
     d0e:	58 a1       	ldd	r21, Y+32	; 0x20
     d10:	6d 89       	ldd	r22, Y+21	; 0x15
     d12:	7e 89       	ldd	r23, Y+22	; 0x16
     d14:	8f 89       	ldd	r24, Y+23	; 0x17
     d16:	98 8d       	ldd	r25, Y+24	; 0x18
     d18:	0e 94 c9 0f 	call	0x1f92	; 0x1f92 <__mulsf3>
     d1c:	6b 01       	movw	r12, r22
     d1e:	7c 01       	movw	r14, r24
     d20:	29 8d       	ldd	r18, Y+25	; 0x19
     d22:	3a 8d       	ldd	r19, Y+26	; 0x1a
     d24:	4b 8d       	ldd	r20, Y+27	; 0x1b
     d26:	5c 8d       	ldd	r21, Y+28	; 0x1c
     d28:	69 81       	ldd	r22, Y+1	; 0x01
     d2a:	7a 81       	ldd	r23, Y+2	; 0x02
     d2c:	8b 81       	ldd	r24, Y+3	; 0x03
     d2e:	9c 81       	ldd	r25, Y+4	; 0x04
     d30:	0e 94 c9 0f 	call	0x1f92	; 0x1f92 <__mulsf3>
     d34:	9b 01       	movw	r18, r22
     d36:	ac 01       	movw	r20, r24
     d38:	c7 01       	movw	r24, r14
     d3a:	b6 01       	movw	r22, r12
     d3c:	0e 94 44 0d 	call	0x1a88	; 0x1a88 <__subsf3>
     d40:	4b 01       	movw	r8, r22
     d42:	5c 01       	movw	r10, r24

		// Compute and apply integral feedback if enabled
		if(mpu6050_mahonytwoKiDef > 0.0f) {
			integralFBx += mpu6050_mahonytwoKiDef * halfex * (1.0f / mpu6050_mahonysampleFreq);	// integral error scaled by Ki
     d44:	c0 90 30 01 	lds	r12, 0x0130
     d48:	d0 90 31 01 	lds	r13, 0x0131
     d4c:	e0 90 32 01 	lds	r14, 0x0132
     d50:	f0 90 33 01 	lds	r15, 0x0133
     d54:	2d ec       	ldi	r18, 0xCD	; 205
     d56:	3c ec       	ldi	r19, 0xCC	; 204
     d58:	4c e4       	ldi	r20, 0x4C	; 76
     d5a:	5e e3       	ldi	r21, 0x3E	; 62
     d5c:	69 a1       	ldd	r22, Y+33	; 0x21
     d5e:	7a a1       	ldd	r23, Y+34	; 0x22
     d60:	8b a1       	ldd	r24, Y+35	; 0x23
     d62:	9c a1       	ldd	r25, Y+36	; 0x24
     d64:	0e 94 c9 0f 	call	0x1f92	; 0x1f92 <__mulsf3>
     d68:	2a e8       	ldi	r18, 0x8A	; 138
     d6a:	3b e4       	ldi	r19, 0x4B	; 75
     d6c:	46 e8       	ldi	r20, 0x86	; 134
     d6e:	5c e3       	ldi	r21, 0x3C	; 60
     d70:	0e 94 c9 0f 	call	0x1f92	; 0x1f92 <__mulsf3>
     d74:	a7 01       	movw	r20, r14
     d76:	96 01       	movw	r18, r12
     d78:	0e 94 45 0d 	call	0x1a8a	; 0x1a8a <__addsf3>
     d7c:	60 93 30 01 	sts	0x0130, r22
     d80:	70 93 31 01 	sts	0x0131, r23
     d84:	80 93 32 01 	sts	0x0132, r24
     d88:	90 93 33 01 	sts	0x0133, r25
			integralFBy += mpu6050_mahonytwoKiDef * halfey * (1.0f / mpu6050_mahonysampleFreq);
     d8c:	c0 90 2c 01 	lds	r12, 0x012C
     d90:	d0 90 2d 01 	lds	r13, 0x012D
     d94:	e0 90 2e 01 	lds	r14, 0x012E
     d98:	f0 90 2f 01 	lds	r15, 0x012F
     d9c:	2d ec       	ldi	r18, 0xCD	; 205
     d9e:	3c ec       	ldi	r19, 0xCC	; 204
     da0:	4c e4       	ldi	r20, 0x4C	; 76
     da2:	5e e3       	ldi	r21, 0x3E	; 62
     da4:	c3 01       	movw	r24, r6
     da6:	b2 01       	movw	r22, r4
     da8:	0e 94 c9 0f 	call	0x1f92	; 0x1f92 <__mulsf3>
     dac:	2a e8       	ldi	r18, 0x8A	; 138
     dae:	3b e4       	ldi	r19, 0x4B	; 75
     db0:	46 e8       	ldi	r20, 0x86	; 134
     db2:	5c e3       	ldi	r21, 0x3C	; 60
     db4:	0e 94 c9 0f 	call	0x1f92	; 0x1f92 <__mulsf3>
     db8:	a7 01       	movw	r20, r14
     dba:	96 01       	movw	r18, r12
     dbc:	0e 94 45 0d 	call	0x1a8a	; 0x1a8a <__addsf3>
     dc0:	60 93 2c 01 	sts	0x012C, r22
     dc4:	70 93 2d 01 	sts	0x012D, r23
     dc8:	80 93 2e 01 	sts	0x012E, r24
     dcc:	90 93 2f 01 	sts	0x012F, r25
			integralFBz += mpu6050_mahonytwoKiDef * halfez * (1.0f / mpu6050_mahonysampleFreq);
     dd0:	c0 90 28 01 	lds	r12, 0x0128
     dd4:	d0 90 29 01 	lds	r13, 0x0129
     dd8:	e0 90 2a 01 	lds	r14, 0x012A
     ddc:	f0 90 2b 01 	lds	r15, 0x012B
     de0:	2d ec       	ldi	r18, 0xCD	; 205
     de2:	3c ec       	ldi	r19, 0xCC	; 204
     de4:	4c e4       	ldi	r20, 0x4C	; 76
     de6:	5e e3       	ldi	r21, 0x3E	; 62
     de8:	c5 01       	movw	r24, r10
     dea:	b4 01       	movw	r22, r8
     dec:	0e 94 c9 0f 	call	0x1f92	; 0x1f92 <__mulsf3>
     df0:	2a e8       	ldi	r18, 0x8A	; 138
     df2:	3b e4       	ldi	r19, 0x4B	; 75
     df4:	46 e8       	ldi	r20, 0x86	; 134
     df6:	5c e3       	ldi	r21, 0x3C	; 60
     df8:	0e 94 c9 0f 	call	0x1f92	; 0x1f92 <__mulsf3>
     dfc:	a7 01       	movw	r20, r14
     dfe:	96 01       	movw	r18, r12
     e00:	0e 94 45 0d 	call	0x1a8a	; 0x1a8a <__addsf3>
     e04:	60 93 28 01 	sts	0x0128, r22
     e08:	70 93 29 01 	sts	0x0129, r23
     e0c:	80 93 2a 01 	sts	0x012A, r24
     e10:	90 93 2b 01 	sts	0x012B, r25
			gx += integralFBx;	// apply integral feedback
     e14:	20 91 30 01 	lds	r18, 0x0130
     e18:	30 91 31 01 	lds	r19, 0x0131
     e1c:	40 91 32 01 	lds	r20, 0x0132
     e20:	50 91 33 01 	lds	r21, 0x0133
     e24:	69 85       	ldd	r22, Y+9	; 0x09
     e26:	7a 85       	ldd	r23, Y+10	; 0x0a
     e28:	8b 85       	ldd	r24, Y+11	; 0x0b
     e2a:	9c 85       	ldd	r25, Y+12	; 0x0c
     e2c:	0e 94 45 0d 	call	0x1a8a	; 0x1a8a <__addsf3>
     e30:	69 83       	std	Y+1, r22	; 0x01
     e32:	7a 83       	std	Y+2, r23	; 0x02
     e34:	8b 83       	std	Y+3, r24	; 0x03
     e36:	9c 83       	std	Y+4, r25	; 0x04
			gy += integralFBy;
     e38:	20 91 2c 01 	lds	r18, 0x012C
     e3c:	30 91 2d 01 	lds	r19, 0x012D
     e40:	40 91 2e 01 	lds	r20, 0x012E
     e44:	50 91 2f 01 	lds	r21, 0x012F
     e48:	6d 85       	ldd	r22, Y+13	; 0x0d
     e4a:	7e 85       	ldd	r23, Y+14	; 0x0e
     e4c:	8f 85       	ldd	r24, Y+15	; 0x0f
     e4e:	98 89       	ldd	r25, Y+16	; 0x10
     e50:	0e 94 45 0d 	call	0x1a8a	; 0x1a8a <__addsf3>
     e54:	6d 83       	std	Y+5, r22	; 0x05
     e56:	7e 83       	std	Y+6, r23	; 0x06
     e58:	8f 83       	std	Y+7, r24	; 0x07
     e5a:	98 87       	std	Y+8, r25	; 0x08
			gz += integralFBz;
     e5c:	20 91 28 01 	lds	r18, 0x0128
     e60:	30 91 29 01 	lds	r19, 0x0129
     e64:	40 91 2a 01 	lds	r20, 0x012A
     e68:	50 91 2b 01 	lds	r21, 0x012B
     e6c:	69 89       	ldd	r22, Y+17	; 0x11
     e6e:	7a 89       	ldd	r23, Y+18	; 0x12
     e70:	8b 89       	ldd	r24, Y+19	; 0x13
     e72:	9c 89       	ldd	r25, Y+20	; 0x14
     e74:	0e 94 45 0d 	call	0x1a8a	; 0x1a8a <__addsf3>
     e78:	6b 01       	movw	r12, r22
     e7a:	7c 01       	movw	r14, r24
			integralFBy = 0.0f;
			integralFBz = 0.0f;
		}

		// Apply proportional feedback
		gx += mpu6050_mahonytwoKpDef * halfex;
     e7c:	29 a1       	ldd	r18, Y+33	; 0x21
     e7e:	3a a1       	ldd	r19, Y+34	; 0x22
     e80:	4b a1       	ldd	r20, Y+35	; 0x23
     e82:	5c a1       	ldd	r21, Y+36	; 0x24
     e84:	69 81       	ldd	r22, Y+1	; 0x01
     e86:	7a 81       	ldd	r23, Y+2	; 0x02
     e88:	8b 81       	ldd	r24, Y+3	; 0x03
     e8a:	9c 81       	ldd	r25, Y+4	; 0x04
     e8c:	0e 94 45 0d 	call	0x1a8a	; 0x1a8a <__addsf3>
     e90:	69 87       	std	Y+9, r22	; 0x09
     e92:	7a 87       	std	Y+10, r23	; 0x0a
     e94:	8b 87       	std	Y+11, r24	; 0x0b
     e96:	9c 87       	std	Y+12, r25	; 0x0c
		gy += mpu6050_mahonytwoKpDef * halfey;
     e98:	a3 01       	movw	r20, r6
     e9a:	92 01       	movw	r18, r4
     e9c:	6d 81       	ldd	r22, Y+5	; 0x05
     e9e:	7e 81       	ldd	r23, Y+6	; 0x06
     ea0:	8f 81       	ldd	r24, Y+7	; 0x07
     ea2:	98 85       	ldd	r25, Y+8	; 0x08
     ea4:	0e 94 45 0d 	call	0x1a8a	; 0x1a8a <__addsf3>
     ea8:	6d 87       	std	Y+13, r22	; 0x0d
     eaa:	7e 87       	std	Y+14, r23	; 0x0e
     eac:	8f 87       	std	Y+15, r24	; 0x0f
     eae:	98 8b       	std	Y+16, r25	; 0x10
		gz += mpu6050_mahonytwoKpDef * halfez;
     eb0:	a5 01       	movw	r20, r10
     eb2:	94 01       	movw	r18, r8
     eb4:	c7 01       	movw	r24, r14
     eb6:	b6 01       	movw	r22, r12
     eb8:	0e 94 45 0d 	call	0x1a8a	; 0x1a8a <__addsf3>
     ebc:	69 8b       	std	Y+17, r22	; 0x11
     ebe:	7a 8b       	std	Y+18, r23	; 0x12
     ec0:	8b 8b       	std	Y+19, r24	; 0x13
     ec2:	9c 8b       	std	Y+20, r25	; 0x14
	}

	// Integrate rate of change of quaternion
	gx *= (0.5f * (1.0f / mpu6050_mahonysampleFreq));		// pre-multiply common factors
     ec4:	2a e8       	ldi	r18, 0x8A	; 138
     ec6:	3b e4       	ldi	r19, 0x4B	; 75
     ec8:	46 e0       	ldi	r20, 0x06	; 6
     eca:	5c e3       	ldi	r21, 0x3C	; 60
     ecc:	69 85       	ldd	r22, Y+9	; 0x09
     ece:	7a 85       	ldd	r23, Y+10	; 0x0a
     ed0:	8b 85       	ldd	r24, Y+11	; 0x0b
     ed2:	9c 85       	ldd	r25, Y+12	; 0x0c
     ed4:	0e 94 c9 0f 	call	0x1f92	; 0x1f92 <__mulsf3>
     ed8:	69 83       	std	Y+1, r22	; 0x01
     eda:	7a 83       	std	Y+2, r23	; 0x02
     edc:	8b 83       	std	Y+3, r24	; 0x03
     ede:	9c 83       	std	Y+4, r25	; 0x04
	gy *= (0.5f * (1.0f / mpu6050_mahonysampleFreq));
     ee0:	2a e8       	ldi	r18, 0x8A	; 138
     ee2:	3b e4       	ldi	r19, 0x4B	; 75
     ee4:	46 e0       	ldi	r20, 0x06	; 6
     ee6:	5c e3       	ldi	r21, 0x3C	; 60
     ee8:	6d 85       	ldd	r22, Y+13	; 0x0d
     eea:	7e 85       	ldd	r23, Y+14	; 0x0e
     eec:	8f 85       	ldd	r24, Y+15	; 0x0f
     eee:	98 89       	ldd	r25, Y+16	; 0x10
     ef0:	0e 94 c9 0f 	call	0x1f92	; 0x1f92 <__mulsf3>
     ef4:	6d 83       	std	Y+5, r22	; 0x05
     ef6:	7e 83       	std	Y+6, r23	; 0x06
     ef8:	8f 83       	std	Y+7, r24	; 0x07
     efa:	98 87       	std	Y+8, r25	; 0x08
	gz *= (0.5f * (1.0f / mpu6050_mahonysampleFreq));
     efc:	2a e8       	ldi	r18, 0x8A	; 138
     efe:	3b e4       	ldi	r19, 0x4B	; 75
     f00:	46 e0       	ldi	r20, 0x06	; 6
     f02:	5c e3       	ldi	r21, 0x3C	; 60
     f04:	69 89       	ldd	r22, Y+17	; 0x11
     f06:	7a 89       	ldd	r23, Y+18	; 0x12
     f08:	8b 89       	ldd	r24, Y+19	; 0x13
     f0a:	9c 89       	ldd	r25, Y+20	; 0x14
     f0c:	0e 94 c9 0f 	call	0x1f92	; 0x1f92 <__mulsf3>
     f10:	69 87       	std	Y+9, r22	; 0x09
     f12:	7a 87       	std	Y+10, r23	; 0x0a
     f14:	8b 87       	std	Y+11, r24	; 0x0b
     f16:	9c 87       	std	Y+12, r25	; 0x0c
	qa = q0;
     f18:	e0 90 00 01 	lds	r14, 0x0100
     f1c:	f0 90 01 01 	lds	r15, 0x0101
     f20:	00 91 02 01 	lds	r16, 0x0102
     f24:	10 91 03 01 	lds	r17, 0x0103
     f28:	ed 86       	std	Y+13, r14	; 0x0d
     f2a:	fe 86       	std	Y+14, r15	; 0x0e
     f2c:	0f 87       	std	Y+15, r16	; 0x0f
     f2e:	18 8b       	std	Y+16, r17	; 0x10
	qb = q1;
     f30:	e0 90 3c 01 	lds	r14, 0x013C
     f34:	f0 90 3d 01 	lds	r15, 0x013D
     f38:	00 91 3e 01 	lds	r16, 0x013E
     f3c:	10 91 3f 01 	lds	r17, 0x013F
     f40:	e9 8a       	std	Y+17, r14	; 0x11
     f42:	fa 8a       	std	Y+18, r15	; 0x12
     f44:	0b 8b       	std	Y+19, r16	; 0x13
     f46:	1c 8b       	std	Y+20, r17	; 0x14
	qc = q2;
     f48:	e0 90 38 01 	lds	r14, 0x0138
     f4c:	f0 90 39 01 	lds	r15, 0x0139
     f50:	00 91 3a 01 	lds	r16, 0x013A
     f54:	10 91 3b 01 	lds	r17, 0x013B
     f58:	ed 8a       	std	Y+21, r14	; 0x15
     f5a:	fe 8a       	std	Y+22, r15	; 0x16
     f5c:	0f 8b       	std	Y+23, r16	; 0x17
     f5e:	18 8f       	std	Y+24, r17	; 0x18
	q0 += (-qb * gx - qc * gy - q3 * gz);
     f60:	40 90 34 01 	lds	r4, 0x0134
     f64:	50 90 35 01 	lds	r5, 0x0135
     f68:	60 90 36 01 	lds	r6, 0x0136
     f6c:	70 90 37 01 	lds	r7, 0x0137
     f70:	c0 90 00 01 	lds	r12, 0x0100
     f74:	d0 90 01 01 	lds	r13, 0x0101
     f78:	e0 90 02 01 	lds	r14, 0x0102
     f7c:	f0 90 03 01 	lds	r15, 0x0103
     f80:	69 89       	ldd	r22, Y+17	; 0x11
     f82:	7a 89       	ldd	r23, Y+18	; 0x12
     f84:	8b 89       	ldd	r24, Y+19	; 0x13
     f86:	9c 89       	ldd	r25, Y+20	; 0x14
     f88:	90 58       	subi	r25, 0x80	; 128
     f8a:	29 81       	ldd	r18, Y+1	; 0x01
     f8c:	3a 81       	ldd	r19, Y+2	; 0x02
     f8e:	4b 81       	ldd	r20, Y+3	; 0x03
     f90:	5c 81       	ldd	r21, Y+4	; 0x04
     f92:	0e 94 c9 0f 	call	0x1f92	; 0x1f92 <__mulsf3>
     f96:	4b 01       	movw	r8, r22
     f98:	5c 01       	movw	r10, r24
     f9a:	2d 81       	ldd	r18, Y+5	; 0x05
     f9c:	3e 81       	ldd	r19, Y+6	; 0x06
     f9e:	4f 81       	ldd	r20, Y+7	; 0x07
     fa0:	58 85       	ldd	r21, Y+8	; 0x08
     fa2:	6d 89       	ldd	r22, Y+21	; 0x15
     fa4:	7e 89       	ldd	r23, Y+22	; 0x16
     fa6:	8f 89       	ldd	r24, Y+23	; 0x17
     fa8:	98 8d       	ldd	r25, Y+24	; 0x18
     faa:	0e 94 c9 0f 	call	0x1f92	; 0x1f92 <__mulsf3>
     fae:	9b 01       	movw	r18, r22
     fb0:	ac 01       	movw	r20, r24
     fb2:	c5 01       	movw	r24, r10
     fb4:	b4 01       	movw	r22, r8
     fb6:	0e 94 44 0d 	call	0x1a88	; 0x1a88 <__subsf3>
     fba:	4b 01       	movw	r8, r22
     fbc:	5c 01       	movw	r10, r24
     fbe:	29 85       	ldd	r18, Y+9	; 0x09
     fc0:	3a 85       	ldd	r19, Y+10	; 0x0a
     fc2:	4b 85       	ldd	r20, Y+11	; 0x0b
     fc4:	5c 85       	ldd	r21, Y+12	; 0x0c
     fc6:	c3 01       	movw	r24, r6
     fc8:	b2 01       	movw	r22, r4
     fca:	0e 94 c9 0f 	call	0x1f92	; 0x1f92 <__mulsf3>
     fce:	9b 01       	movw	r18, r22
     fd0:	ac 01       	movw	r20, r24
     fd2:	c5 01       	movw	r24, r10
     fd4:	b4 01       	movw	r22, r8
     fd6:	0e 94 44 0d 	call	0x1a88	; 0x1a88 <__subsf3>
     fda:	a7 01       	movw	r20, r14
     fdc:	96 01       	movw	r18, r12
     fde:	0e 94 45 0d 	call	0x1a8a	; 0x1a8a <__addsf3>
     fe2:	60 93 00 01 	sts	0x0100, r22
     fe6:	70 93 01 01 	sts	0x0101, r23
     fea:	80 93 02 01 	sts	0x0102, r24
     fee:	90 93 03 01 	sts	0x0103, r25
	q1 += (qa * gx + qc * gz - q3 * gy);
     ff2:	40 90 34 01 	lds	r4, 0x0134
     ff6:	50 90 35 01 	lds	r5, 0x0135
     ffa:	60 90 36 01 	lds	r6, 0x0136
     ffe:	70 90 37 01 	lds	r7, 0x0137
    1002:	c0 90 3c 01 	lds	r12, 0x013C
    1006:	d0 90 3d 01 	lds	r13, 0x013D
    100a:	e0 90 3e 01 	lds	r14, 0x013E
    100e:	f0 90 3f 01 	lds	r15, 0x013F
    1012:	29 81       	ldd	r18, Y+1	; 0x01
    1014:	3a 81       	ldd	r19, Y+2	; 0x02
    1016:	4b 81       	ldd	r20, Y+3	; 0x03
    1018:	5c 81       	ldd	r21, Y+4	; 0x04
    101a:	6d 85       	ldd	r22, Y+13	; 0x0d
    101c:	7e 85       	ldd	r23, Y+14	; 0x0e
    101e:	8f 85       	ldd	r24, Y+15	; 0x0f
    1020:	98 89       	ldd	r25, Y+16	; 0x10
    1022:	0e 94 c9 0f 	call	0x1f92	; 0x1f92 <__mulsf3>
    1026:	4b 01       	movw	r8, r22
    1028:	5c 01       	movw	r10, r24
    102a:	29 85       	ldd	r18, Y+9	; 0x09
    102c:	3a 85       	ldd	r19, Y+10	; 0x0a
    102e:	4b 85       	ldd	r20, Y+11	; 0x0b
    1030:	5c 85       	ldd	r21, Y+12	; 0x0c
    1032:	6d 89       	ldd	r22, Y+21	; 0x15
    1034:	7e 89       	ldd	r23, Y+22	; 0x16
    1036:	8f 89       	ldd	r24, Y+23	; 0x17
    1038:	98 8d       	ldd	r25, Y+24	; 0x18
    103a:	0e 94 c9 0f 	call	0x1f92	; 0x1f92 <__mulsf3>
    103e:	9b 01       	movw	r18, r22
    1040:	ac 01       	movw	r20, r24
    1042:	c5 01       	movw	r24, r10
    1044:	b4 01       	movw	r22, r8
    1046:	0e 94 45 0d 	call	0x1a8a	; 0x1a8a <__addsf3>
    104a:	4b 01       	movw	r8, r22
    104c:	5c 01       	movw	r10, r24
    104e:	2d 81       	ldd	r18, Y+5	; 0x05
    1050:	3e 81       	ldd	r19, Y+6	; 0x06
    1052:	4f 81       	ldd	r20, Y+7	; 0x07
    1054:	58 85       	ldd	r21, Y+8	; 0x08
    1056:	c3 01       	movw	r24, r6
    1058:	b2 01       	movw	r22, r4
    105a:	0e 94 c9 0f 	call	0x1f92	; 0x1f92 <__mulsf3>
    105e:	9b 01       	movw	r18, r22
    1060:	ac 01       	movw	r20, r24
    1062:	c5 01       	movw	r24, r10
    1064:	b4 01       	movw	r22, r8
    1066:	0e 94 44 0d 	call	0x1a88	; 0x1a88 <__subsf3>
    106a:	a7 01       	movw	r20, r14
    106c:	96 01       	movw	r18, r12
    106e:	0e 94 45 0d 	call	0x1a8a	; 0x1a8a <__addsf3>
    1072:	60 93 3c 01 	sts	0x013C, r22
    1076:	70 93 3d 01 	sts	0x013D, r23
    107a:	80 93 3e 01 	sts	0x013E, r24
    107e:	90 93 3f 01 	sts	0x013F, r25
	q2 += (qa * gy - qb * gz + q3 * gx);
    1082:	40 90 34 01 	lds	r4, 0x0134
    1086:	50 90 35 01 	lds	r5, 0x0135
    108a:	60 90 36 01 	lds	r6, 0x0136
    108e:	70 90 37 01 	lds	r7, 0x0137
    1092:	c0 90 38 01 	lds	r12, 0x0138
    1096:	d0 90 39 01 	lds	r13, 0x0139
    109a:	e0 90 3a 01 	lds	r14, 0x013A
    109e:	f0 90 3b 01 	lds	r15, 0x013B
    10a2:	2d 81       	ldd	r18, Y+5	; 0x05
    10a4:	3e 81       	ldd	r19, Y+6	; 0x06
    10a6:	4f 81       	ldd	r20, Y+7	; 0x07
    10a8:	58 85       	ldd	r21, Y+8	; 0x08
    10aa:	6d 85       	ldd	r22, Y+13	; 0x0d
    10ac:	7e 85       	ldd	r23, Y+14	; 0x0e
    10ae:	8f 85       	ldd	r24, Y+15	; 0x0f
    10b0:	98 89       	ldd	r25, Y+16	; 0x10
    10b2:	0e 94 c9 0f 	call	0x1f92	; 0x1f92 <__mulsf3>
    10b6:	4b 01       	movw	r8, r22
    10b8:	5c 01       	movw	r10, r24
    10ba:	29 85       	ldd	r18, Y+9	; 0x09
    10bc:	3a 85       	ldd	r19, Y+10	; 0x0a
    10be:	4b 85       	ldd	r20, Y+11	; 0x0b
    10c0:	5c 85       	ldd	r21, Y+12	; 0x0c
    10c2:	69 89       	ldd	r22, Y+17	; 0x11
    10c4:	7a 89       	ldd	r23, Y+18	; 0x12
    10c6:	8b 89       	ldd	r24, Y+19	; 0x13
    10c8:	9c 89       	ldd	r25, Y+20	; 0x14
    10ca:	0e 94 c9 0f 	call	0x1f92	; 0x1f92 <__mulsf3>
    10ce:	9b 01       	movw	r18, r22
    10d0:	ac 01       	movw	r20, r24
    10d2:	c5 01       	movw	r24, r10
    10d4:	b4 01       	movw	r22, r8
    10d6:	0e 94 44 0d 	call	0x1a88	; 0x1a88 <__subsf3>
    10da:	4b 01       	movw	r8, r22
    10dc:	5c 01       	movw	r10, r24
    10de:	29 81       	ldd	r18, Y+1	; 0x01
    10e0:	3a 81       	ldd	r19, Y+2	; 0x02
    10e2:	4b 81       	ldd	r20, Y+3	; 0x03
    10e4:	5c 81       	ldd	r21, Y+4	; 0x04
    10e6:	c3 01       	movw	r24, r6
    10e8:	b2 01       	movw	r22, r4
    10ea:	0e 94 c9 0f 	call	0x1f92	; 0x1f92 <__mulsf3>
    10ee:	9b 01       	movw	r18, r22
    10f0:	ac 01       	movw	r20, r24
    10f2:	c5 01       	movw	r24, r10
    10f4:	b4 01       	movw	r22, r8
    10f6:	0e 94 45 0d 	call	0x1a8a	; 0x1a8a <__addsf3>
    10fa:	a7 01       	movw	r20, r14
    10fc:	96 01       	movw	r18, r12
    10fe:	0e 94 45 0d 	call	0x1a8a	; 0x1a8a <__addsf3>
    1102:	60 93 38 01 	sts	0x0138, r22
    1106:	70 93 39 01 	sts	0x0139, r23
    110a:	80 93 3a 01 	sts	0x013A, r24
    110e:	90 93 3b 01 	sts	0x013B, r25
	q3 += (qa * gz + qb * gy - qc * gx);
    1112:	c0 90 34 01 	lds	r12, 0x0134
    1116:	d0 90 35 01 	lds	r13, 0x0135
    111a:	e0 90 36 01 	lds	r14, 0x0136
    111e:	f0 90 37 01 	lds	r15, 0x0137
    1122:	29 85       	ldd	r18, Y+9	; 0x09
    1124:	3a 85       	ldd	r19, Y+10	; 0x0a
    1126:	4b 85       	ldd	r20, Y+11	; 0x0b
    1128:	5c 85       	ldd	r21, Y+12	; 0x0c
    112a:	6d 85       	ldd	r22, Y+13	; 0x0d
    112c:	7e 85       	ldd	r23, Y+14	; 0x0e
    112e:	8f 85       	ldd	r24, Y+15	; 0x0f
    1130:	98 89       	ldd	r25, Y+16	; 0x10
    1132:	0e 94 c9 0f 	call	0x1f92	; 0x1f92 <__mulsf3>
    1136:	4b 01       	movw	r8, r22
    1138:	5c 01       	movw	r10, r24
    113a:	2d 81       	ldd	r18, Y+5	; 0x05
    113c:	3e 81       	ldd	r19, Y+6	; 0x06
    113e:	4f 81       	ldd	r20, Y+7	; 0x07
    1140:	58 85       	ldd	r21, Y+8	; 0x08
    1142:	69 89       	ldd	r22, Y+17	; 0x11
    1144:	7a 89       	ldd	r23, Y+18	; 0x12
    1146:	8b 89       	ldd	r24, Y+19	; 0x13
    1148:	9c 89       	ldd	r25, Y+20	; 0x14
    114a:	0e 94 c9 0f 	call	0x1f92	; 0x1f92 <__mulsf3>
    114e:	9b 01       	movw	r18, r22
    1150:	ac 01       	movw	r20, r24
    1152:	c5 01       	movw	r24, r10
    1154:	b4 01       	movw	r22, r8
    1156:	0e 94 45 0d 	call	0x1a8a	; 0x1a8a <__addsf3>
    115a:	4b 01       	movw	r8, r22
    115c:	5c 01       	movw	r10, r24
    115e:	29 81       	ldd	r18, Y+1	; 0x01
    1160:	3a 81       	ldd	r19, Y+2	; 0x02
    1162:	4b 81       	ldd	r20, Y+3	; 0x03
    1164:	5c 81       	ldd	r21, Y+4	; 0x04
    1166:	6d 89       	ldd	r22, Y+21	; 0x15
    1168:	7e 89       	ldd	r23, Y+22	; 0x16
    116a:	8f 89       	ldd	r24, Y+23	; 0x17
    116c:	98 8d       	ldd	r25, Y+24	; 0x18
    116e:	0e 94 c9 0f 	call	0x1f92	; 0x1f92 <__mulsf3>
    1172:	9b 01       	movw	r18, r22
    1174:	ac 01       	movw	r20, r24
    1176:	c5 01       	movw	r24, r10
    1178:	b4 01       	movw	r22, r8
    117a:	0e 94 44 0d 	call	0x1a88	; 0x1a88 <__subsf3>
    117e:	a7 01       	movw	r20, r14
    1180:	96 01       	movw	r18, r12
    1182:	0e 94 45 0d 	call	0x1a8a	; 0x1a8a <__addsf3>
    1186:	60 93 34 01 	sts	0x0134, r22
    118a:	70 93 35 01 	sts	0x0135, r23
    118e:	80 93 36 01 	sts	0x0136, r24
    1192:	90 93 37 01 	sts	0x0137, r25

	// Normalise quaternion
	norm = sqrt(q0 * q0 + q1 * q1 + q2 * q2 + q3 * q3);
    1196:	60 91 00 01 	lds	r22, 0x0100
    119a:	70 91 01 01 	lds	r23, 0x0101
    119e:	80 91 02 01 	lds	r24, 0x0102
    11a2:	90 91 03 01 	lds	r25, 0x0103
    11a6:	20 91 00 01 	lds	r18, 0x0100
    11aa:	30 91 01 01 	lds	r19, 0x0101
    11ae:	40 91 02 01 	lds	r20, 0x0102
    11b2:	50 91 03 01 	lds	r21, 0x0103
    11b6:	80 90 3c 01 	lds	r8, 0x013C
    11ba:	90 90 3d 01 	lds	r9, 0x013D
    11be:	a0 90 3e 01 	lds	r10, 0x013E
    11c2:	b0 90 3f 01 	lds	r11, 0x013F
    11c6:	40 90 3c 01 	lds	r4, 0x013C
    11ca:	50 90 3d 01 	lds	r5, 0x013D
    11ce:	60 90 3e 01 	lds	r6, 0x013E
    11d2:	70 90 3f 01 	lds	r7, 0x013F
    11d6:	e0 90 38 01 	lds	r14, 0x0138
    11da:	f0 90 39 01 	lds	r15, 0x0139
    11de:	00 91 3a 01 	lds	r16, 0x013A
    11e2:	10 91 3b 01 	lds	r17, 0x013B
    11e6:	e9 82       	std	Y+1, r14	; 0x01
    11e8:	fa 82       	std	Y+2, r15	; 0x02
    11ea:	0b 83       	std	Y+3, r16	; 0x03
    11ec:	1c 83       	std	Y+4, r17	; 0x04
    11ee:	e0 90 38 01 	lds	r14, 0x0138
    11f2:	f0 90 39 01 	lds	r15, 0x0139
    11f6:	00 91 3a 01 	lds	r16, 0x013A
    11fa:	10 91 3b 01 	lds	r17, 0x013B
    11fe:	ed 82       	std	Y+5, r14	; 0x05
    1200:	fe 82       	std	Y+6, r15	; 0x06
    1202:	0f 83       	std	Y+7, r16	; 0x07
    1204:	18 87       	std	Y+8, r17	; 0x08
    1206:	e0 90 34 01 	lds	r14, 0x0134
    120a:	f0 90 35 01 	lds	r15, 0x0135
    120e:	00 91 36 01 	lds	r16, 0x0136
    1212:	10 91 37 01 	lds	r17, 0x0137
    1216:	e9 86       	std	Y+9, r14	; 0x09
    1218:	fa 86       	std	Y+10, r15	; 0x0a
    121a:	0b 87       	std	Y+11, r16	; 0x0b
    121c:	1c 87       	std	Y+12, r17	; 0x0c
    121e:	e0 90 34 01 	lds	r14, 0x0134
    1222:	f0 90 35 01 	lds	r15, 0x0135
    1226:	00 91 36 01 	lds	r16, 0x0136
    122a:	10 91 37 01 	lds	r17, 0x0137
    122e:	ed 86       	std	Y+13, r14	; 0x0d
    1230:	fe 86       	std	Y+14, r15	; 0x0e
    1232:	0f 87       	std	Y+15, r16	; 0x0f
    1234:	18 8b       	std	Y+16, r17	; 0x10
    1236:	0e 94 c9 0f 	call	0x1f92	; 0x1f92 <__mulsf3>
    123a:	6b 01       	movw	r12, r22
    123c:	7c 01       	movw	r14, r24
    123e:	a3 01       	movw	r20, r6
    1240:	92 01       	movw	r18, r4
    1242:	c5 01       	movw	r24, r10
    1244:	b4 01       	movw	r22, r8
    1246:	0e 94 c9 0f 	call	0x1f92	; 0x1f92 <__mulsf3>
    124a:	9b 01       	movw	r18, r22
    124c:	ac 01       	movw	r20, r24
    124e:	c7 01       	movw	r24, r14
    1250:	b6 01       	movw	r22, r12
    1252:	0e 94 45 0d 	call	0x1a8a	; 0x1a8a <__addsf3>
    1256:	6b 01       	movw	r12, r22
    1258:	7c 01       	movw	r14, r24
    125a:	2d 81       	ldd	r18, Y+5	; 0x05
    125c:	3e 81       	ldd	r19, Y+6	; 0x06
    125e:	4f 81       	ldd	r20, Y+7	; 0x07
    1260:	58 85       	ldd	r21, Y+8	; 0x08
    1262:	69 81       	ldd	r22, Y+1	; 0x01
    1264:	7a 81       	ldd	r23, Y+2	; 0x02
    1266:	8b 81       	ldd	r24, Y+3	; 0x03
    1268:	9c 81       	ldd	r25, Y+4	; 0x04
    126a:	0e 94 c9 0f 	call	0x1f92	; 0x1f92 <__mulsf3>
    126e:	9b 01       	movw	r18, r22
    1270:	ac 01       	movw	r20, r24
    1272:	c7 01       	movw	r24, r14
    1274:	b6 01       	movw	r22, r12
    1276:	0e 94 45 0d 	call	0x1a8a	; 0x1a8a <__addsf3>
    127a:	6b 01       	movw	r12, r22
    127c:	7c 01       	movw	r14, r24
    127e:	2d 85       	ldd	r18, Y+13	; 0x0d
    1280:	3e 85       	ldd	r19, Y+14	; 0x0e
    1282:	4f 85       	ldd	r20, Y+15	; 0x0f
    1284:	58 89       	ldd	r21, Y+16	; 0x10
    1286:	69 85       	ldd	r22, Y+9	; 0x09
    1288:	7a 85       	ldd	r23, Y+10	; 0x0a
    128a:	8b 85       	ldd	r24, Y+11	; 0x0b
    128c:	9c 85       	ldd	r25, Y+12	; 0x0c
    128e:	0e 94 c9 0f 	call	0x1f92	; 0x1f92 <__mulsf3>
    1292:	9b 01       	movw	r18, r22
    1294:	ac 01       	movw	r20, r24
    1296:	c7 01       	movw	r24, r14
    1298:	b6 01       	movw	r22, r12
    129a:	0e 94 45 0d 	call	0x1a8a	; 0x1a8a <__addsf3>
    129e:	0e 94 30 10 	call	0x2060	; 0x2060 <sqrt>
    12a2:	6b 01       	movw	r12, r22
    12a4:	7c 01       	movw	r14, r24
	q0 /= norm;
    12a6:	60 91 00 01 	lds	r22, 0x0100
    12aa:	70 91 01 01 	lds	r23, 0x0101
    12ae:	80 91 02 01 	lds	r24, 0x0102
    12b2:	90 91 03 01 	lds	r25, 0x0103
    12b6:	a7 01       	movw	r20, r14
    12b8:	96 01       	movw	r18, r12
    12ba:	0e 94 26 0e 	call	0x1c4c	; 0x1c4c <__divsf3>
    12be:	60 93 00 01 	sts	0x0100, r22
    12c2:	70 93 01 01 	sts	0x0101, r23
    12c6:	80 93 02 01 	sts	0x0102, r24
    12ca:	90 93 03 01 	sts	0x0103, r25
	q1 /= norm;
    12ce:	60 91 3c 01 	lds	r22, 0x013C
    12d2:	70 91 3d 01 	lds	r23, 0x013D
    12d6:	80 91 3e 01 	lds	r24, 0x013E
    12da:	90 91 3f 01 	lds	r25, 0x013F
    12de:	a7 01       	movw	r20, r14
    12e0:	96 01       	movw	r18, r12
    12e2:	0e 94 26 0e 	call	0x1c4c	; 0x1c4c <__divsf3>
    12e6:	60 93 3c 01 	sts	0x013C, r22
    12ea:	70 93 3d 01 	sts	0x013D, r23
    12ee:	80 93 3e 01 	sts	0x013E, r24
    12f2:	90 93 3f 01 	sts	0x013F, r25
	q2 /= norm;
    12f6:	60 91 38 01 	lds	r22, 0x0138
    12fa:	70 91 39 01 	lds	r23, 0x0139
    12fe:	80 91 3a 01 	lds	r24, 0x013A
    1302:	90 91 3b 01 	lds	r25, 0x013B
    1306:	a7 01       	movw	r20, r14
    1308:	96 01       	movw	r18, r12
    130a:	0e 94 26 0e 	call	0x1c4c	; 0x1c4c <__divsf3>
    130e:	60 93 38 01 	sts	0x0138, r22
    1312:	70 93 39 01 	sts	0x0139, r23
    1316:	80 93 3a 01 	sts	0x013A, r24
    131a:	90 93 3b 01 	sts	0x013B, r25
	q3 /= norm;
    131e:	60 91 34 01 	lds	r22, 0x0134
    1322:	70 91 35 01 	lds	r23, 0x0135
    1326:	80 91 36 01 	lds	r24, 0x0136
    132a:	90 91 37 01 	lds	r25, 0x0137
    132e:	a7 01       	movw	r20, r14
    1330:	96 01       	movw	r18, r12
    1332:	0e 94 26 0e 	call	0x1c4c	; 0x1c4c <__divsf3>
    1336:	60 93 34 01 	sts	0x0134, r22
    133a:	70 93 35 01 	sts	0x0135, r23
    133e:	80 93 36 01 	sts	0x0136, r24
    1342:	90 93 37 01 	sts	0x0137, r25
}
    1346:	a4 96       	adiw	r28, 0x24	; 36
    1348:	0f b6       	in	r0, 0x3f	; 63
    134a:	f8 94       	cli
    134c:	de bf       	out	0x3e, r29	; 62
    134e:	0f be       	out	0x3f, r0	; 63
    1350:	cd bf       	out	0x3d, r28	; 61
    1352:	df 91       	pop	r29
    1354:	cf 91       	pop	r28
    1356:	1f 91       	pop	r17
    1358:	0f 91       	pop	r16
    135a:	ff 90       	pop	r15
    135c:	ef 90       	pop	r14
    135e:	df 90       	pop	r13
    1360:	cf 90       	pop	r12
    1362:	bf 90       	pop	r11
    1364:	af 90       	pop	r10
    1366:	9f 90       	pop	r9
    1368:	8f 90       	pop	r8
    136a:	7f 90       	pop	r7
    136c:	6f 90       	pop	r6
    136e:	5f 90       	pop	r5
    1370:	4f 90       	pop	r4
    1372:	08 95       	ret

00001374 <mpu6050_updateQuaternion>:

/*
 * update quaternion
 */
void mpu6050_updateQuaternion() {
    1374:	4f 92       	push	r4
    1376:	5f 92       	push	r5
    1378:	6f 92       	push	r6
    137a:	7f 92       	push	r7
    137c:	8f 92       	push	r8
    137e:	9f 92       	push	r9
    1380:	af 92       	push	r10
    1382:	bf 92       	push	r11
    1384:	cf 92       	push	r12
    1386:	df 92       	push	r13
    1388:	ef 92       	push	r14
    138a:	ff 92       	push	r15
    138c:	0f 93       	push	r16
    138e:	1f 93       	push	r17
    1390:	cf 93       	push	r28
    1392:	df 93       	push	r29
    1394:	cd b7       	in	r28, 0x3d	; 61
    1396:	de b7       	in	r29, 0x3e	; 62
    1398:	28 97       	sbiw	r28, 0x08	; 8
    139a:	0f b6       	in	r0, 0x3f	; 63
    139c:	f8 94       	cli
    139e:	de bf       	out	0x3e, r29	; 62
    13a0:	0f be       	out	0x3f, r0	; 63
    13a2:	cd bf       	out	0x3d, r28	; 61
	double gyrs = 0;
	double gzrs = 0;

	//get raw data
	while(1) {
		mpu6050_readBit(MPU6050_RA_INT_STATUS, MPU6050_INTERRUPT_DATA_RDY_BIT, (uint8_t *)buffer);
    13a4:	4c eb       	ldi	r20, 0xBC	; 188
    13a6:	51 e0       	ldi	r21, 0x01	; 1
    13a8:	60 e0       	ldi	r22, 0x00	; 0
    13aa:	8a e3       	ldi	r24, 0x3A	; 58
    13ac:	0e 94 3a 04 	call	0x874	; 0x874 <mpu6050_readBit>
		if(buffer[0])
    13b0:	80 91 bc 01 	lds	r24, 0x01BC
    13b4:	81 11       	cpse	r24, r1
    13b6:	05 c0       	rjmp	.+10     	; 0x13c2 <mpu6050_updateQuaternion+0x4e>
	#else
		//round up by default
		__ticks_dc = (uint32_t)(ceil(fabs(__tmp)));
	#endif

	__builtin_avr_delay_cycles(__ticks_dc);
    13b8:	85 e3       	ldi	r24, 0x35	; 53
    13ba:	8a 95       	dec	r24
    13bc:	f1 f7       	brne	.-4      	; 0x13ba <mpu6050_updateQuaternion+0x46>
    13be:	00 00       	nop
    13c0:	f1 cf       	rjmp	.-30     	; 0x13a4 <mpu6050_updateQuaternion+0x30>
			break;
		_delay_us(10);
	}

	mpu6050_readBytes(MPU6050_RA_ACCEL_XOUT_H, 14, (uint8_t *)buffer);
    13c2:	4c eb       	ldi	r20, 0xBC	; 188
    13c4:	51 e0       	ldi	r21, 0x01	; 1
    13c6:	6e e0       	ldi	r22, 0x0E	; 14
    13c8:	8b e3       	ldi	r24, 0x3B	; 59
    13ca:	0e 94 c2 03 	call	0x784	; 0x784 <mpu6050_readBytes>
    ax = (((int16_t)buffer[0]) << 8) | buffer[1];
    13ce:	80 91 bc 01 	lds	r24, 0x01BC
    13d2:	60 91 bd 01 	lds	r22, 0x01BD
    ay = (((int16_t)buffer[2]) << 8) | buffer[3];
    13d6:	00 91 be 01 	lds	r16, 0x01BE
    13da:	90 90 bf 01 	lds	r9, 0x01BF
    az = (((int16_t)buffer[4]) << 8) | buffer[5];
    13de:	80 90 c0 01 	lds	r8, 0x01C0
    13e2:	10 91 c1 01 	lds	r17, 0x01C1
    gx = (((int16_t)buffer[8]) << 8) | buffer[9];
    13e6:	70 90 c4 01 	lds	r7, 0x01C4
    13ea:	60 90 c5 01 	lds	r6, 0x01C5
    gy = (((int16_t)buffer[10]) << 8) | buffer[11];
    13ee:	50 90 c6 01 	lds	r5, 0x01C6
    13f2:	40 90 c7 01 	lds	r4, 0x01C7
    gz = (((int16_t)buffer[12]) << 8) | buffer[13];
    13f6:	f0 90 c8 01 	lds	r15, 0x01C8
    13fa:	e0 90 c9 01 	lds	r14, 0x01C9
			break;
		_delay_us(10);
	}

	mpu6050_readBytes(MPU6050_RA_ACCEL_XOUT_H, 14, (uint8_t *)buffer);
    ax = (((int16_t)buffer[0]) << 8) | buffer[1];
    13fe:	70 e0       	ldi	r23, 0x00	; 0
    1400:	78 2b       	or	r23, r24
    gx = (((int16_t)buffer[8]) << 8) | buffer[9];
    gy = (((int16_t)buffer[10]) << 8) | buffer[11];
    gz = (((int16_t)buffer[12]) << 8) | buffer[13];

	#if MPU6050_CALIBRATEDACCGYRO == 1
	axg = (double)(ax-MPU6050_AXOFFSET)/MPU6050_AXGAIN;
    1402:	88 27       	eor	r24, r24
    1404:	77 fd       	sbrc	r23, 7
    1406:	80 95       	com	r24
    1408:	98 2f       	mov	r25, r24
    140a:	0e 94 c1 0e 	call	0x1d82	; 0x1d82 <__floatsisf>
    140e:	20 e0       	ldi	r18, 0x00	; 0
    1410:	30 e0       	ldi	r19, 0x00	; 0
    1412:	40 e8       	ldi	r20, 0x80	; 128
    1414:	58 e3       	ldi	r21, 0x38	; 56
    1416:	0e 94 c9 0f 	call	0x1f92	; 0x1f92 <__mulsf3>
    141a:	5b 01       	movw	r10, r22
    141c:	6c 01       	movw	r12, r24
    ax = (((int16_t)buffer[0]) << 8) | buffer[1];
    ay = (((int16_t)buffer[2]) << 8) | buffer[3];
    az = (((int16_t)buffer[4]) << 8) | buffer[5];
    gx = (((int16_t)buffer[8]) << 8) | buffer[9];
    gy = (((int16_t)buffer[10]) << 8) | buffer[11];
    gz = (((int16_t)buffer[12]) << 8) | buffer[13];
    141e:	6e 2d       	mov	r22, r14
    1420:	70 e0       	ldi	r23, 0x00	; 0
    1422:	7f 29       	or	r23, r15
	axg = (double)(ax-MPU6050_AXOFFSET)/MPU6050_AXGAIN;
	ayg = (double)(ay-MPU6050_AYOFFSET)/MPU6050_AYGAIN;
	azg = (double)(az-MPU6050_AZOFFSET)/MPU6050_AZGAIN;
	gxrs = (double)(gx-MPU6050_GXOFFSET)/MPU6050_GXGAIN*0.01745329; //degree to radians
	gyrs = (double)(gy-MPU6050_GYOFFSET)/MPU6050_GYGAIN*0.01745329; //degree to radians
	gzrs = (double)(gz-MPU6050_GZOFFSET)/MPU6050_GZGAIN*0.01745329; //degree to radians
    1424:	63 5e       	subi	r22, 0xE3	; 227
    1426:	7f 4f       	sbci	r23, 0xFF	; 255
    1428:	88 27       	eor	r24, r24
    142a:	77 fd       	sbrc	r23, 7
    142c:	80 95       	com	r24
    142e:	98 2f       	mov	r25, r24
    1430:	0e 94 c1 0e 	call	0x1d82	; 0x1d82 <__floatsisf>
    1434:	23 e3       	ldi	r18, 0x33	; 51
    1436:	33 e3       	ldi	r19, 0x33	; 51
    1438:	43 e8       	ldi	r20, 0x83	; 131
    143a:	51 e4       	ldi	r21, 0x41	; 65
    143c:	0e 94 26 0e 	call	0x1c4c	; 0x1c4c <__divsf3>
    1440:	24 e3       	ldi	r18, 0x34	; 52
    1442:	3a ef       	ldi	r19, 0xFA	; 250
    1444:	4e e8       	ldi	r20, 0x8E	; 142
    1446:	5c e3       	ldi	r21, 0x3C	; 60
    1448:	0e 94 c9 0f 	call	0x1f92	; 0x1f92 <__mulsf3>
    144c:	69 83       	std	Y+1, r22	; 0x01
    144e:	7a 83       	std	Y+2, r23	; 0x02
    1450:	8b 83       	std	Y+3, r24	; 0x03
    1452:	9c 83       	std	Y+4, r25	; 0x04
	mpu6050_readBytes(MPU6050_RA_ACCEL_XOUT_H, 14, (uint8_t *)buffer);
    ax = (((int16_t)buffer[0]) << 8) | buffer[1];
    ay = (((int16_t)buffer[2]) << 8) | buffer[3];
    az = (((int16_t)buffer[4]) << 8) | buffer[5];
    gx = (((int16_t)buffer[8]) << 8) | buffer[9];
    gy = (((int16_t)buffer[10]) << 8) | buffer[11];
    1454:	64 2d       	mov	r22, r4
    1456:	70 e0       	ldi	r23, 0x00	; 0
    1458:	75 29       	or	r23, r5
	#if MPU6050_CALIBRATEDACCGYRO == 1
	axg = (double)(ax-MPU6050_AXOFFSET)/MPU6050_AXGAIN;
	ayg = (double)(ay-MPU6050_AYOFFSET)/MPU6050_AYGAIN;
	azg = (double)(az-MPU6050_AZOFFSET)/MPU6050_AZGAIN;
	gxrs = (double)(gx-MPU6050_GXOFFSET)/MPU6050_GXGAIN*0.01745329; //degree to radians
	gyrs = (double)(gy-MPU6050_GYOFFSET)/MPU6050_GYGAIN*0.01745329; //degree to radians
    145a:	69 50       	subi	r22, 0x09	; 9
    145c:	71 09       	sbc	r23, r1
    145e:	88 27       	eor	r24, r24
    1460:	77 fd       	sbrc	r23, 7
    1462:	80 95       	com	r24
    1464:	98 2f       	mov	r25, r24
    1466:	0e 94 c1 0e 	call	0x1d82	; 0x1d82 <__floatsisf>
    146a:	23 e3       	ldi	r18, 0x33	; 51
    146c:	33 e3       	ldi	r19, 0x33	; 51
    146e:	43 e8       	ldi	r20, 0x83	; 131
    1470:	51 e4       	ldi	r21, 0x41	; 65
    1472:	0e 94 26 0e 	call	0x1c4c	; 0x1c4c <__divsf3>
    1476:	24 e3       	ldi	r18, 0x34	; 52
    1478:	3a ef       	ldi	r19, 0xFA	; 250
    147a:	4e e8       	ldi	r20, 0x8E	; 142
    147c:	5c e3       	ldi	r21, 0x3C	; 60
    147e:	0e 94 c9 0f 	call	0x1f92	; 0x1f92 <__mulsf3>
    1482:	6d 83       	std	Y+5, r22	; 0x05
    1484:	7e 83       	std	Y+6, r23	; 0x06
    1486:	8f 83       	std	Y+7, r24	; 0x07
    1488:	98 87       	std	Y+8, r25	; 0x08

	mpu6050_readBytes(MPU6050_RA_ACCEL_XOUT_H, 14, (uint8_t *)buffer);
    ax = (((int16_t)buffer[0]) << 8) | buffer[1];
    ay = (((int16_t)buffer[2]) << 8) | buffer[3];
    az = (((int16_t)buffer[4]) << 8) | buffer[5];
    gx = (((int16_t)buffer[8]) << 8) | buffer[9];
    148a:	66 2d       	mov	r22, r6
    148c:	70 e0       	ldi	r23, 0x00	; 0
    148e:	77 29       	or	r23, r7

	#if MPU6050_CALIBRATEDACCGYRO == 1
	axg = (double)(ax-MPU6050_AXOFFSET)/MPU6050_AXGAIN;
	ayg = (double)(ay-MPU6050_AYOFFSET)/MPU6050_AYGAIN;
	azg = (double)(az-MPU6050_AZOFFSET)/MPU6050_AZGAIN;
	gxrs = (double)(gx-MPU6050_GXOFFSET)/MPU6050_GXGAIN*0.01745329; //degree to radians
    1490:	66 5f       	subi	r22, 0xF6	; 246
    1492:	7f 4f       	sbci	r23, 0xFF	; 255
    1494:	88 27       	eor	r24, r24
    1496:	77 fd       	sbrc	r23, 7
    1498:	80 95       	com	r24
    149a:	98 2f       	mov	r25, r24
    149c:	0e 94 c1 0e 	call	0x1d82	; 0x1d82 <__floatsisf>
    14a0:	23 e3       	ldi	r18, 0x33	; 51
    14a2:	33 e3       	ldi	r19, 0x33	; 51
    14a4:	43 e8       	ldi	r20, 0x83	; 131
    14a6:	51 e4       	ldi	r21, 0x41	; 65
    14a8:	0e 94 26 0e 	call	0x1c4c	; 0x1c4c <__divsf3>
    14ac:	24 e3       	ldi	r18, 0x34	; 52
    14ae:	3a ef       	ldi	r19, 0xFA	; 250
    14b0:	4e e8       	ldi	r20, 0x8E	; 142
    14b2:	5c e3       	ldi	r21, 0x3C	; 60
    14b4:	0e 94 c9 0f 	call	0x1f92	; 0x1f92 <__mulsf3>
    14b8:	2b 01       	movw	r4, r22
    14ba:	3c 01       	movw	r6, r24
	}

	mpu6050_readBytes(MPU6050_RA_ACCEL_XOUT_H, 14, (uint8_t *)buffer);
    ax = (((int16_t)buffer[0]) << 8) | buffer[1];
    ay = (((int16_t)buffer[2]) << 8) | buffer[3];
    az = (((int16_t)buffer[4]) << 8) | buffer[5];
    14bc:	61 2f       	mov	r22, r17
    14be:	70 e0       	ldi	r23, 0x00	; 0
    14c0:	78 29       	or	r23, r8
    gz = (((int16_t)buffer[12]) << 8) | buffer[13];

	#if MPU6050_CALIBRATEDACCGYRO == 1
	axg = (double)(ax-MPU6050_AXOFFSET)/MPU6050_AXGAIN;
	ayg = (double)(ay-MPU6050_AYOFFSET)/MPU6050_AYGAIN;
	azg = (double)(az-MPU6050_AZOFFSET)/MPU6050_AZGAIN;
    14c2:	88 27       	eor	r24, r24
    14c4:	77 fd       	sbrc	r23, 7
    14c6:	80 95       	com	r24
    14c8:	98 2f       	mov	r25, r24
    14ca:	0e 94 c1 0e 	call	0x1d82	; 0x1d82 <__floatsisf>
    14ce:	20 e0       	ldi	r18, 0x00	; 0
    14d0:	30 e0       	ldi	r19, 0x00	; 0
    14d2:	40 e8       	ldi	r20, 0x80	; 128
    14d4:	58 e3       	ldi	r21, 0x38	; 56
    14d6:	0e 94 c9 0f 	call	0x1f92	; 0x1f92 <__mulsf3>
	gyrs = (double)(gy)/MPU6050_GGAIN*0.01745329; //degree to radians
	gzrs = (double)(gz)/MPU6050_GGAIN*0.01745329; //degree to radians
	#endif

    //compute data
    mpu6050_mahonyUpdate(gxrs, gyrs, gzrs, axg, ayg, azg);
    14da:	9f 93       	push	r25
    14dc:	8f 93       	push	r24
    14de:	7f 93       	push	r23
    14e0:	6f 93       	push	r22
		_delay_us(10);
	}

	mpu6050_readBytes(MPU6050_RA_ACCEL_XOUT_H, 14, (uint8_t *)buffer);
    ax = (((int16_t)buffer[0]) << 8) | buffer[1];
    ay = (((int16_t)buffer[2]) << 8) | buffer[3];
    14e2:	69 2d       	mov	r22, r9
    14e4:	70 e0       	ldi	r23, 0x00	; 0
    14e6:	70 2b       	or	r23, r16
    gy = (((int16_t)buffer[10]) << 8) | buffer[11];
    gz = (((int16_t)buffer[12]) << 8) | buffer[13];

	#if MPU6050_CALIBRATEDACCGYRO == 1
	axg = (double)(ax-MPU6050_AXOFFSET)/MPU6050_AXGAIN;
	ayg = (double)(ay-MPU6050_AYOFFSET)/MPU6050_AYGAIN;
    14e8:	88 27       	eor	r24, r24
    14ea:	77 fd       	sbrc	r23, 7
    14ec:	80 95       	com	r24
    14ee:	98 2f       	mov	r25, r24
    14f0:	0e 94 c1 0e 	call	0x1d82	; 0x1d82 <__floatsisf>
    14f4:	20 e0       	ldi	r18, 0x00	; 0
    14f6:	30 e0       	ldi	r19, 0x00	; 0
    14f8:	40 e8       	ldi	r20, 0x80	; 128
    14fa:	58 e3       	ldi	r21, 0x38	; 56
    14fc:	0e 94 c9 0f 	call	0x1f92	; 0x1f92 <__mulsf3>
	gyrs = (double)(gy)/MPU6050_GGAIN*0.01745329; //degree to radians
	gzrs = (double)(gz)/MPU6050_GGAIN*0.01745329; //degree to radians
	#endif

    //compute data
    mpu6050_mahonyUpdate(gxrs, gyrs, gzrs, axg, ayg, azg);
    1500:	9f 93       	push	r25
    1502:	8f 93       	push	r24
    1504:	7f 93       	push	r23
    1506:	6f 93       	push	r22
    1508:	e9 80       	ldd	r14, Y+1	; 0x01
    150a:	fa 80       	ldd	r15, Y+2	; 0x02
    150c:	0b 81       	ldd	r16, Y+3	; 0x03
    150e:	1c 81       	ldd	r17, Y+4	; 0x04
    1510:	2d 81       	ldd	r18, Y+5	; 0x05
    1512:	3e 81       	ldd	r19, Y+6	; 0x06
    1514:	4f 81       	ldd	r20, Y+7	; 0x07
    1516:	58 85       	ldd	r21, Y+8	; 0x08
    1518:	c3 01       	movw	r24, r6
    151a:	b2 01       	movw	r22, r4
    151c:	0e 94 1a 05 	call	0xa34	; 0xa34 <mpu6050_mahonyUpdate>
    1520:	0f b6       	in	r0, 0x3f	; 63
    1522:	f8 94       	cli
    1524:	de bf       	out	0x3e, r29	; 62
    1526:	0f be       	out	0x3f, r0	; 63
    1528:	cd bf       	out	0x3d, r28	; 61
}
    152a:	28 96       	adiw	r28, 0x08	; 8
    152c:	0f b6       	in	r0, 0x3f	; 63
    152e:	f8 94       	cli
    1530:	de bf       	out	0x3e, r29	; 62
    1532:	0f be       	out	0x3f, r0	; 63
    1534:	cd bf       	out	0x3d, r28	; 61
    1536:	df 91       	pop	r29
    1538:	cf 91       	pop	r28
    153a:	1f 91       	pop	r17
    153c:	0f 91       	pop	r16
    153e:	ff 90       	pop	r15
    1540:	ef 90       	pop	r14
    1542:	df 90       	pop	r13
    1544:	cf 90       	pop	r12
    1546:	bf 90       	pop	r11
    1548:	af 90       	pop	r10
    154a:	9f 90       	pop	r9
    154c:	8f 90       	pop	r8
    154e:	7f 90       	pop	r7
    1550:	6f 90       	pop	r6
    1552:	5f 90       	pop	r5
    1554:	4f 90       	pop	r4
    1556:	08 95       	ret

00001558 <__vector_16>:

/*
 * update timer for attitude
 */
ISR(TIMER0_OVF_vect) {
    1558:	1f 92       	push	r1
    155a:	0f 92       	push	r0
    155c:	0f b6       	in	r0, 0x3f	; 63
    155e:	0f 92       	push	r0
    1560:	11 24       	eor	r1, r1
    1562:	2f 93       	push	r18
    1564:	3f 93       	push	r19
    1566:	4f 93       	push	r20
    1568:	5f 93       	push	r21
    156a:	6f 93       	push	r22
    156c:	7f 93       	push	r23
    156e:	8f 93       	push	r24
    1570:	9f 93       	push	r25
    1572:	af 93       	push	r26
    1574:	bf 93       	push	r27
    1576:	ef 93       	push	r30
    1578:	ff 93       	push	r31
	mpu6050_updateQuaternion();
    157a:	0e 94 ba 09 	call	0x1374	; 0x1374 <mpu6050_updateQuaternion>
}
    157e:	ff 91       	pop	r31
    1580:	ef 91       	pop	r30
    1582:	bf 91       	pop	r27
    1584:	af 91       	pop	r26
    1586:	9f 91       	pop	r25
    1588:	8f 91       	pop	r24
    158a:	7f 91       	pop	r23
    158c:	6f 91       	pop	r22
    158e:	5f 91       	pop	r21
    1590:	4f 91       	pop	r20
    1592:	3f 91       	pop	r19
    1594:	2f 91       	pop	r18
    1596:	0f 90       	pop	r0
    1598:	0f be       	out	0x3f, r0	; 63
    159a:	0f 90       	pop	r0
    159c:	1f 90       	pop	r1
    159e:	18 95       	reti

000015a0 <mpu6050_getRollPitchYaw>:
 * aerospace sequence, to obtain sensor attitude:
 * 1. rotate around sensor Z plane by yaw
 * 2. rotate around sensor Y plane by pitch
 * 3. rotate around sensor X plane by roll
 */
void mpu6050_getRollPitchYaw(double *roll, double *pitch, double *yaw) {
    15a0:	2f 92       	push	r2
    15a2:	3f 92       	push	r3
    15a4:	4f 92       	push	r4
    15a6:	5f 92       	push	r5
    15a8:	6f 92       	push	r6
    15aa:	7f 92       	push	r7
    15ac:	8f 92       	push	r8
    15ae:	9f 92       	push	r9
    15b0:	af 92       	push	r10
    15b2:	bf 92       	push	r11
    15b4:	cf 92       	push	r12
    15b6:	df 92       	push	r13
    15b8:	ef 92       	push	r14
    15ba:	ff 92       	push	r15
    15bc:	0f 93       	push	r16
    15be:	1f 93       	push	r17
    15c0:	cf 93       	push	r28
    15c2:	df 93       	push	r29
    15c4:	cd b7       	in	r28, 0x3d	; 61
    15c6:	de b7       	in	r29, 0x3e	; 62
    15c8:	62 97       	sbiw	r28, 0x12	; 18
    15ca:	0f b6       	in	r0, 0x3f	; 63
    15cc:	f8 94       	cli
    15ce:	de bf       	out	0x3e, r29	; 62
    15d0:	0f be       	out	0x3f, r0	; 63
    15d2:	cd bf       	out	0x3d, r28	; 61
    15d4:	1c 01       	movw	r2, r24
    15d6:	8b 01       	movw	r16, r22
    15d8:	5a 8b       	std	Y+18, r21	; 0x12
    15da:	49 8b       	std	Y+17, r20	; 0x11
	*yaw = atan2(2*q1*q2 - 2*q0*q3, 2*q0*q0 + 2*q1*q1 - 1);
    15dc:	60 91 00 01 	lds	r22, 0x0100
    15e0:	70 91 01 01 	lds	r23, 0x0101
    15e4:	80 91 02 01 	lds	r24, 0x0102
    15e8:	90 91 03 01 	lds	r25, 0x0103
    15ec:	80 90 00 01 	lds	r8, 0x0100
    15f0:	90 90 01 01 	lds	r9, 0x0101
    15f4:	a0 90 02 01 	lds	r10, 0x0102
    15f8:	b0 90 03 01 	lds	r11, 0x0103
    15fc:	c0 90 3c 01 	lds	r12, 0x013C
    1600:	d0 90 3d 01 	lds	r13, 0x013D
    1604:	e0 90 3e 01 	lds	r14, 0x013E
    1608:	f0 90 3f 01 	lds	r15, 0x013F
    160c:	20 91 3c 01 	lds	r18, 0x013C
    1610:	30 91 3d 01 	lds	r19, 0x013D
    1614:	40 91 3e 01 	lds	r20, 0x013E
    1618:	50 91 3f 01 	lds	r21, 0x013F
    161c:	2d 83       	std	Y+5, r18	; 0x05
    161e:	3e 83       	std	Y+6, r19	; 0x06
    1620:	4f 83       	std	Y+7, r20	; 0x07
    1622:	58 87       	std	Y+8, r21	; 0x08
    1624:	20 91 3c 01 	lds	r18, 0x013C
    1628:	30 91 3d 01 	lds	r19, 0x013D
    162c:	40 91 3e 01 	lds	r20, 0x013E
    1630:	50 91 3f 01 	lds	r21, 0x013F
    1634:	29 83       	std	Y+1, r18	; 0x01
    1636:	3a 83       	std	Y+2, r19	; 0x02
    1638:	4b 83       	std	Y+3, r20	; 0x03
    163a:	5c 83       	std	Y+4, r21	; 0x04
    163c:	20 91 38 01 	lds	r18, 0x0138
    1640:	30 91 39 01 	lds	r19, 0x0139
    1644:	40 91 3a 01 	lds	r20, 0x013A
    1648:	50 91 3b 01 	lds	r21, 0x013B
    164c:	29 87       	std	Y+9, r18	; 0x09
    164e:	3a 87       	std	Y+10, r19	; 0x0a
    1650:	4b 87       	std	Y+11, r20	; 0x0b
    1652:	5c 87       	std	Y+12, r21	; 0x0c
    1654:	40 90 00 01 	lds	r4, 0x0100
    1658:	50 90 01 01 	lds	r5, 0x0101
    165c:	60 90 02 01 	lds	r6, 0x0102
    1660:	70 90 03 01 	lds	r7, 0x0103
    1664:	20 91 34 01 	lds	r18, 0x0134
    1668:	30 91 35 01 	lds	r19, 0x0135
    166c:	40 91 36 01 	lds	r20, 0x0136
    1670:	50 91 37 01 	lds	r21, 0x0137
    1674:	2d 87       	std	Y+13, r18	; 0x0d
    1676:	3e 87       	std	Y+14, r19	; 0x0e
    1678:	4f 87       	std	Y+15, r20	; 0x0f
    167a:	58 8b       	std	Y+16, r21	; 0x10
    167c:	9b 01       	movw	r18, r22
    167e:	ac 01       	movw	r20, r24
    1680:	0e 94 45 0d 	call	0x1a8a	; 0x1a8a <__addsf3>
    1684:	a5 01       	movw	r20, r10
    1686:	94 01       	movw	r18, r8
    1688:	0e 94 c9 0f 	call	0x1f92	; 0x1f92 <__mulsf3>
    168c:	4b 01       	movw	r8, r22
    168e:	5c 01       	movw	r10, r24
    1690:	a7 01       	movw	r20, r14
    1692:	96 01       	movw	r18, r12
    1694:	c7 01       	movw	r24, r14
    1696:	b6 01       	movw	r22, r12
    1698:	0e 94 45 0d 	call	0x1a8a	; 0x1a8a <__addsf3>
    169c:	2d 81       	ldd	r18, Y+5	; 0x05
    169e:	3e 81       	ldd	r19, Y+6	; 0x06
    16a0:	4f 81       	ldd	r20, Y+7	; 0x07
    16a2:	58 85       	ldd	r21, Y+8	; 0x08
    16a4:	0e 94 c9 0f 	call	0x1f92	; 0x1f92 <__mulsf3>
    16a8:	9b 01       	movw	r18, r22
    16aa:	ac 01       	movw	r20, r24
    16ac:	c5 01       	movw	r24, r10
    16ae:	b4 01       	movw	r22, r8
    16b0:	0e 94 45 0d 	call	0x1a8a	; 0x1a8a <__addsf3>
    16b4:	20 e0       	ldi	r18, 0x00	; 0
    16b6:	30 e0       	ldi	r19, 0x00	; 0
    16b8:	40 e8       	ldi	r20, 0x80	; 128
    16ba:	5f e3       	ldi	r21, 0x3F	; 63
    16bc:	0e 94 44 0d 	call	0x1a88	; 0x1a88 <__subsf3>
    16c0:	6b 01       	movw	r12, r22
    16c2:	7c 01       	movw	r14, r24
    16c4:	29 81       	ldd	r18, Y+1	; 0x01
    16c6:	3a 81       	ldd	r19, Y+2	; 0x02
    16c8:	4b 81       	ldd	r20, Y+3	; 0x03
    16ca:	5c 81       	ldd	r21, Y+4	; 0x04
    16cc:	ca 01       	movw	r24, r20
    16ce:	b9 01       	movw	r22, r18
    16d0:	0e 94 45 0d 	call	0x1a8a	; 0x1a8a <__addsf3>
    16d4:	29 85       	ldd	r18, Y+9	; 0x09
    16d6:	3a 85       	ldd	r19, Y+10	; 0x0a
    16d8:	4b 85       	ldd	r20, Y+11	; 0x0b
    16da:	5c 85       	ldd	r21, Y+12	; 0x0c
    16dc:	0e 94 c9 0f 	call	0x1f92	; 0x1f92 <__mulsf3>
    16e0:	4b 01       	movw	r8, r22
    16e2:	5c 01       	movw	r10, r24
    16e4:	a3 01       	movw	r20, r6
    16e6:	92 01       	movw	r18, r4
    16e8:	c3 01       	movw	r24, r6
    16ea:	b2 01       	movw	r22, r4
    16ec:	0e 94 45 0d 	call	0x1a8a	; 0x1a8a <__addsf3>
    16f0:	2d 85       	ldd	r18, Y+13	; 0x0d
    16f2:	3e 85       	ldd	r19, Y+14	; 0x0e
    16f4:	4f 85       	ldd	r20, Y+15	; 0x0f
    16f6:	58 89       	ldd	r21, Y+16	; 0x10
    16f8:	0e 94 c9 0f 	call	0x1f92	; 0x1f92 <__mulsf3>
    16fc:	9b 01       	movw	r18, r22
    16fe:	ac 01       	movw	r20, r24
    1700:	c5 01       	movw	r24, r10
    1702:	b4 01       	movw	r22, r8
    1704:	0e 94 44 0d 	call	0x1a88	; 0x1a88 <__subsf3>
    1708:	a7 01       	movw	r20, r14
    170a:	96 01       	movw	r18, r12
    170c:	0e 94 cf 0d 	call	0x1b9e	; 0x1b9e <atan2>
    1710:	e9 89       	ldd	r30, Y+17	; 0x11
    1712:	fa 89       	ldd	r31, Y+18	; 0x12
    1714:	60 83       	st	Z, r22
    1716:	71 83       	std	Z+1, r23	; 0x01
    1718:	82 83       	std	Z+2, r24	; 0x02
    171a:	93 83       	std	Z+3, r25	; 0x03
	*pitch = -asin(2*q1*q3 + 2*q0*q2);
    171c:	60 91 3c 01 	lds	r22, 0x013C
    1720:	70 91 3d 01 	lds	r23, 0x013D
    1724:	80 91 3e 01 	lds	r24, 0x013E
    1728:	90 91 3f 01 	lds	r25, 0x013F
    172c:	80 90 34 01 	lds	r8, 0x0134
    1730:	90 90 35 01 	lds	r9, 0x0135
    1734:	a0 90 36 01 	lds	r10, 0x0136
    1738:	b0 90 37 01 	lds	r11, 0x0137
    173c:	c0 90 00 01 	lds	r12, 0x0100
    1740:	d0 90 01 01 	lds	r13, 0x0101
    1744:	e0 90 02 01 	lds	r14, 0x0102
    1748:	f0 90 03 01 	lds	r15, 0x0103
    174c:	40 90 38 01 	lds	r4, 0x0138
    1750:	50 90 39 01 	lds	r5, 0x0139
    1754:	60 90 3a 01 	lds	r6, 0x013A
    1758:	70 90 3b 01 	lds	r7, 0x013B
    175c:	9b 01       	movw	r18, r22
    175e:	ac 01       	movw	r20, r24
    1760:	0e 94 45 0d 	call	0x1a8a	; 0x1a8a <__addsf3>
    1764:	a5 01       	movw	r20, r10
    1766:	94 01       	movw	r18, r8
    1768:	0e 94 c9 0f 	call	0x1f92	; 0x1f92 <__mulsf3>
    176c:	4b 01       	movw	r8, r22
    176e:	5c 01       	movw	r10, r24
    1770:	a7 01       	movw	r20, r14
    1772:	96 01       	movw	r18, r12
    1774:	c7 01       	movw	r24, r14
    1776:	b6 01       	movw	r22, r12
    1778:	0e 94 45 0d 	call	0x1a8a	; 0x1a8a <__addsf3>
    177c:	a3 01       	movw	r20, r6
    177e:	92 01       	movw	r18, r4
    1780:	0e 94 c9 0f 	call	0x1f92	; 0x1f92 <__mulsf3>
    1784:	9b 01       	movw	r18, r22
    1786:	ac 01       	movw	r20, r24
    1788:	c5 01       	movw	r24, r10
    178a:	b4 01       	movw	r22, r8
    178c:	0e 94 45 0d 	call	0x1a8a	; 0x1a8a <__addsf3>
    1790:	0e 94 a9 0d 	call	0x1b52	; 0x1b52 <asin>
    1794:	dc 01       	movw	r26, r24
    1796:	cb 01       	movw	r24, r22
    1798:	b0 58       	subi	r27, 0x80	; 128
    179a:	f8 01       	movw	r30, r16
    179c:	80 83       	st	Z, r24
    179e:	91 83       	std	Z+1, r25	; 0x01
    17a0:	a2 83       	std	Z+2, r26	; 0x02
    17a2:	b3 83       	std	Z+3, r27	; 0x03
	*roll = atan2(2*q2*q3 - 2*q0*q1, 2*q0*q0 + 2*q3*q3 - 1);
    17a4:	60 91 00 01 	lds	r22, 0x0100
    17a8:	70 91 01 01 	lds	r23, 0x0101
    17ac:	80 91 02 01 	lds	r24, 0x0102
    17b0:	90 91 03 01 	lds	r25, 0x0103
    17b4:	40 90 00 01 	lds	r4, 0x0100
    17b8:	50 90 01 01 	lds	r5, 0x0101
    17bc:	60 90 02 01 	lds	r6, 0x0102
    17c0:	70 90 03 01 	lds	r7, 0x0103
    17c4:	80 90 34 01 	lds	r8, 0x0134
    17c8:	90 90 35 01 	lds	r9, 0x0135
    17cc:	a0 90 36 01 	lds	r10, 0x0136
    17d0:	b0 90 37 01 	lds	r11, 0x0137
    17d4:	20 91 34 01 	lds	r18, 0x0134
    17d8:	30 91 35 01 	lds	r19, 0x0135
    17dc:	40 91 36 01 	lds	r20, 0x0136
    17e0:	50 91 37 01 	lds	r21, 0x0137
    17e4:	2d 83       	std	Y+5, r18	; 0x05
    17e6:	3e 83       	std	Y+6, r19	; 0x06
    17e8:	4f 83       	std	Y+7, r20	; 0x07
    17ea:	58 87       	std	Y+8, r21	; 0x08
    17ec:	c0 90 38 01 	lds	r12, 0x0138
    17f0:	d0 90 39 01 	lds	r13, 0x0139
    17f4:	e0 90 3a 01 	lds	r14, 0x013A
    17f8:	f0 90 3b 01 	lds	r15, 0x013B
    17fc:	20 91 34 01 	lds	r18, 0x0134
    1800:	30 91 35 01 	lds	r19, 0x0135
    1804:	40 91 36 01 	lds	r20, 0x0136
    1808:	50 91 37 01 	lds	r21, 0x0137
    180c:	29 87       	std	Y+9, r18	; 0x09
    180e:	3a 87       	std	Y+10, r19	; 0x0a
    1810:	4b 87       	std	Y+11, r20	; 0x0b
    1812:	5c 87       	std	Y+12, r21	; 0x0c
    1814:	20 91 00 01 	lds	r18, 0x0100
    1818:	30 91 01 01 	lds	r19, 0x0101
    181c:	40 91 02 01 	lds	r20, 0x0102
    1820:	50 91 03 01 	lds	r21, 0x0103
    1824:	29 83       	std	Y+1, r18	; 0x01
    1826:	3a 83       	std	Y+2, r19	; 0x02
    1828:	4b 83       	std	Y+3, r20	; 0x03
    182a:	5c 83       	std	Y+4, r21	; 0x04
    182c:	20 91 3c 01 	lds	r18, 0x013C
    1830:	30 91 3d 01 	lds	r19, 0x013D
    1834:	40 91 3e 01 	lds	r20, 0x013E
    1838:	50 91 3f 01 	lds	r21, 0x013F
    183c:	2d 87       	std	Y+13, r18	; 0x0d
    183e:	3e 87       	std	Y+14, r19	; 0x0e
    1840:	4f 87       	std	Y+15, r20	; 0x0f
    1842:	58 8b       	std	Y+16, r21	; 0x10
    1844:	9b 01       	movw	r18, r22
    1846:	ac 01       	movw	r20, r24
    1848:	0e 94 45 0d 	call	0x1a8a	; 0x1a8a <__addsf3>
    184c:	a3 01       	movw	r20, r6
    184e:	92 01       	movw	r18, r4
    1850:	0e 94 c9 0f 	call	0x1f92	; 0x1f92 <__mulsf3>
    1854:	2b 01       	movw	r4, r22
    1856:	3c 01       	movw	r6, r24
    1858:	a5 01       	movw	r20, r10
    185a:	94 01       	movw	r18, r8
    185c:	c5 01       	movw	r24, r10
    185e:	b4 01       	movw	r22, r8
    1860:	0e 94 45 0d 	call	0x1a8a	; 0x1a8a <__addsf3>
    1864:	2d 81       	ldd	r18, Y+5	; 0x05
    1866:	3e 81       	ldd	r19, Y+6	; 0x06
    1868:	4f 81       	ldd	r20, Y+7	; 0x07
    186a:	58 85       	ldd	r21, Y+8	; 0x08
    186c:	0e 94 c9 0f 	call	0x1f92	; 0x1f92 <__mulsf3>
    1870:	9b 01       	movw	r18, r22
    1872:	ac 01       	movw	r20, r24
    1874:	c3 01       	movw	r24, r6
    1876:	b2 01       	movw	r22, r4
    1878:	0e 94 45 0d 	call	0x1a8a	; 0x1a8a <__addsf3>
    187c:	20 e0       	ldi	r18, 0x00	; 0
    187e:	30 e0       	ldi	r19, 0x00	; 0
    1880:	40 e8       	ldi	r20, 0x80	; 128
    1882:	5f e3       	ldi	r21, 0x3F	; 63
    1884:	0e 94 44 0d 	call	0x1a88	; 0x1a88 <__subsf3>
    1888:	4b 01       	movw	r8, r22
    188a:	5c 01       	movw	r10, r24
    188c:	a7 01       	movw	r20, r14
    188e:	96 01       	movw	r18, r12
    1890:	c7 01       	movw	r24, r14
    1892:	b6 01       	movw	r22, r12
    1894:	0e 94 45 0d 	call	0x1a8a	; 0x1a8a <__addsf3>
    1898:	29 85       	ldd	r18, Y+9	; 0x09
    189a:	3a 85       	ldd	r19, Y+10	; 0x0a
    189c:	4b 85       	ldd	r20, Y+11	; 0x0b
    189e:	5c 85       	ldd	r21, Y+12	; 0x0c
    18a0:	0e 94 c9 0f 	call	0x1f92	; 0x1f92 <__mulsf3>
    18a4:	6b 01       	movw	r12, r22
    18a6:	7c 01       	movw	r14, r24
    18a8:	29 81       	ldd	r18, Y+1	; 0x01
    18aa:	3a 81       	ldd	r19, Y+2	; 0x02
    18ac:	4b 81       	ldd	r20, Y+3	; 0x03
    18ae:	5c 81       	ldd	r21, Y+4	; 0x04
    18b0:	ca 01       	movw	r24, r20
    18b2:	b9 01       	movw	r22, r18
    18b4:	0e 94 45 0d 	call	0x1a8a	; 0x1a8a <__addsf3>
    18b8:	2d 85       	ldd	r18, Y+13	; 0x0d
    18ba:	3e 85       	ldd	r19, Y+14	; 0x0e
    18bc:	4f 85       	ldd	r20, Y+15	; 0x0f
    18be:	58 89       	ldd	r21, Y+16	; 0x10
    18c0:	0e 94 c9 0f 	call	0x1f92	; 0x1f92 <__mulsf3>
    18c4:	9b 01       	movw	r18, r22
    18c6:	ac 01       	movw	r20, r24
    18c8:	c7 01       	movw	r24, r14
    18ca:	b6 01       	movw	r22, r12
    18cc:	0e 94 44 0d 	call	0x1a88	; 0x1a88 <__subsf3>
    18d0:	a5 01       	movw	r20, r10
    18d2:	94 01       	movw	r18, r8
    18d4:	0e 94 cf 0d 	call	0x1b9e	; 0x1b9e <atan2>
    18d8:	f1 01       	movw	r30, r2
    18da:	60 83       	st	Z, r22
    18dc:	71 83       	std	Z+1, r23	; 0x01
    18de:	82 83       	std	Z+2, r24	; 0x02
    18e0:	93 83       	std	Z+3, r25	; 0x03
}
    18e2:	62 96       	adiw	r28, 0x12	; 18
    18e4:	0f b6       	in	r0, 0x3f	; 63
    18e6:	f8 94       	cli
    18e8:	de bf       	out	0x3e, r29	; 62
    18ea:	0f be       	out	0x3f, r0	; 63
    18ec:	cd bf       	out	0x3d, r28	; 61
    18ee:	df 91       	pop	r29
    18f0:	cf 91       	pop	r28
    18f2:	1f 91       	pop	r17
    18f4:	0f 91       	pop	r16
    18f6:	ff 90       	pop	r15
    18f8:	ef 90       	pop	r14
    18fa:	df 90       	pop	r13
    18fc:	cf 90       	pop	r12
    18fe:	bf 90       	pop	r11
    1900:	af 90       	pop	r10
    1902:	9f 90       	pop	r9
    1904:	8f 90       	pop	r8
    1906:	7f 90       	pop	r7
    1908:	6f 90       	pop	r6
    190a:	5f 90       	pop	r5
    190c:	4f 90       	pop	r4
    190e:	3f 90       	pop	r3
    1910:	2f 90       	pop	r2
    1912:	08 95       	ret

00001914 <pid_compute_output_proportional>:
		last_elev_error=error;
	}
	
}

void pid_compute_output_proportional(double setpoint,double feedback,uint8_t type, double* output){
    1914:	ef 92       	push	r14
    1916:	ff 92       	push	r15
    1918:	0f 93       	push	r16
	error=setpoint-feedback;
    191a:	0e 94 44 0d 	call	0x1a88	; 0x1a88 <__subsf3>
    191e:	60 93 de 01 	sts	0x01DE, r22
    1922:	70 93 df 01 	sts	0x01DF, r23
    1926:	80 93 e0 01 	sts	0x01E0, r24
    192a:	90 93 e1 01 	sts	0x01E1, r25
	if (type==STAB){
    192e:	01 11       	cpse	r16, r1
    1930:	06 c0       	rjmp	.+12     	; 0x193e <pid_compute_output_proportional+0x2a>
		*output= STAB_KP*error;
    1932:	f7 01       	movw	r30, r14
    1934:	60 83       	st	Z, r22
    1936:	71 83       	std	Z+1, r23	; 0x01
    1938:	82 83       	std	Z+2, r24	; 0x02
    193a:	93 83       	std	Z+3, r25	; 0x03
    193c:	0f c0       	rjmp	.+30     	; 0x195c <pid_compute_output_proportional+0x48>
	}
	else if(type==RATE){
    193e:	01 30       	cpi	r16, 0x01	; 1
    1940:	31 f4       	brne	.+12     	; 0x194e <pid_compute_output_proportional+0x3a>
		*output= RATE_KP*error;
    1942:	f7 01       	movw	r30, r14
    1944:	60 83       	st	Z, r22
    1946:	71 83       	std	Z+1, r23	; 0x01
    1948:	82 83       	std	Z+2, r24	; 0x02
    194a:	93 83       	std	Z+3, r25	; 0x03
    194c:	07 c0       	rjmp	.+14     	; 0x195c <pid_compute_output_proportional+0x48>
	}
	else if(type==ELEV){
    194e:	02 30       	cpi	r16, 0x02	; 2
    1950:	29 f4       	brne	.+10     	; 0x195c <pid_compute_output_proportional+0x48>
		*output= ELEV_KP*error;
    1952:	f7 01       	movw	r30, r14
    1954:	60 83       	st	Z, r22
    1956:	71 83       	std	Z+1, r23	; 0x01
    1958:	82 83       	std	Z+2, r24	; 0x02
    195a:	93 83       	std	Z+3, r25	; 0x03
	}
    195c:	0f 91       	pop	r16
    195e:	ff 90       	pop	r15
    1960:	ef 90       	pop	r14
    1962:	08 95       	ret

00001964 <__vector_18>:
ISR(UART0_RECEIVE_INTERRUPT)
/*************************************************************************
Function: UART Receive Complete interrupt
Purpose:  called when the UART has received a character
**************************************************************************/
{
    1964:	1f 92       	push	r1
    1966:	0f 92       	push	r0
    1968:	0f b6       	in	r0, 0x3f	; 63
    196a:	0f 92       	push	r0
    196c:	11 24       	eor	r1, r1
    196e:	2f 93       	push	r18
    1970:	8f 93       	push	r24
    1972:	9f 93       	push	r25
    1974:	ef 93       	push	r30
    1976:	ff 93       	push	r31
    unsigned char usr;
    unsigned char lastRxError;
 
 
    /* read UART status register and UART data register */ 
    usr  = UART0_STATUS;
    1978:	80 91 c0 00 	lds	r24, 0x00C0
    data = UART0_DATA;
    197c:	20 91 c6 00 	lds	r18, 0x00C6
#if defined( AT90_UART )
    lastRxError = (usr & (_BV(FE)|_BV(DOR)) );
#elif defined( ATMEGA_USART )
    lastRxError = (usr & (_BV(FE)|_BV(DOR)) );
#elif defined( ATMEGA_USART0 )
    lastRxError = (usr & (_BV(FE0)|_BV(DOR0)) );
    1980:	88 71       	andi	r24, 0x18	; 24
#elif defined ( ATMEGA_UART )
    lastRxError = (usr & (_BV(FE)|_BV(DOR)) );
#endif
        
    /* calculate buffer index */ 
    tmphead = ( UART_RxHead + 1) & UART_RX_BUFFER_MASK;
    1982:	e0 91 42 01 	lds	r30, 0x0142
    1986:	ef 5f       	subi	r30, 0xFF	; 255
    1988:	ef 71       	andi	r30, 0x1F	; 31
    
    if ( tmphead == UART_RxTail ) {
    198a:	90 91 41 01 	lds	r25, 0x0141
    198e:	e9 17       	cp	r30, r25
    1990:	39 f0       	breq	.+14     	; 0x19a0 <__vector_18+0x3c>
        /* error: receive buffer overflow */
        lastRxError = UART_BUFFER_OVERFLOW >> 8;
    }else{
        /* store new index */
        UART_RxHead = tmphead;
    1992:	e0 93 42 01 	sts	0x0142, r30
        /* store received data in buffer */
        UART_RxBuf[tmphead] = data;
    1996:	f0 e0       	ldi	r31, 0x00	; 0
    1998:	eb 5b       	subi	r30, 0xBB	; 187
    199a:	fe 4f       	sbci	r31, 0xFE	; 254
    199c:	20 83       	st	Z, r18
    199e:	01 c0       	rjmp	.+2      	; 0x19a2 <__vector_18+0x3e>
    /* calculate buffer index */ 
    tmphead = ( UART_RxHead + 1) & UART_RX_BUFFER_MASK;
    
    if ( tmphead == UART_RxTail ) {
        /* error: receive buffer overflow */
        lastRxError = UART_BUFFER_OVERFLOW >> 8;
    19a0:	82 e0       	ldi	r24, 0x02	; 2
        /* store new index */
        UART_RxHead = tmphead;
        /* store received data in buffer */
        UART_RxBuf[tmphead] = data;
    }
    UART_LastRxError = lastRxError;   
    19a2:	80 93 40 01 	sts	0x0140, r24
}
    19a6:	ff 91       	pop	r31
    19a8:	ef 91       	pop	r30
    19aa:	9f 91       	pop	r25
    19ac:	8f 91       	pop	r24
    19ae:	2f 91       	pop	r18
    19b0:	0f 90       	pop	r0
    19b2:	0f be       	out	0x3f, r0	; 63
    19b4:	0f 90       	pop	r0
    19b6:	1f 90       	pop	r1
    19b8:	18 95       	reti

000019ba <__vector_19>:
ISR(UART0_TRANSMIT_INTERRUPT)
/*************************************************************************
Function: UART Data Register Empty interrupt
Purpose:  called when the UART is ready to transmit the next byte
**************************************************************************/
{
    19ba:	1f 92       	push	r1
    19bc:	0f 92       	push	r0
    19be:	0f b6       	in	r0, 0x3f	; 63
    19c0:	0f 92       	push	r0
    19c2:	11 24       	eor	r1, r1
    19c4:	8f 93       	push	r24
    19c6:	9f 93       	push	r25
    19c8:	ef 93       	push	r30
    19ca:	ff 93       	push	r31
    unsigned char tmptail;

    
    if ( UART_TxHead != UART_TxTail) {
    19cc:	90 91 44 01 	lds	r25, 0x0144
    19d0:	80 91 43 01 	lds	r24, 0x0143
    19d4:	98 17       	cp	r25, r24
    19d6:	69 f0       	breq	.+26     	; 0x19f2 <__vector_19+0x38>
        /* calculate and store new buffer index */
        tmptail = (UART_TxTail + 1) & UART_TX_BUFFER_MASK;
    19d8:	e0 91 43 01 	lds	r30, 0x0143
    19dc:	ef 5f       	subi	r30, 0xFF	; 255
    19de:	ef 71       	andi	r30, 0x1F	; 31
        UART_TxTail = tmptail;
    19e0:	e0 93 43 01 	sts	0x0143, r30
        /* get one byte from buffer and write it to UART */
        UART0_DATA = UART_TxBuf[tmptail];  /* start transmission */
    19e4:	f0 e0       	ldi	r31, 0x00	; 0
    19e6:	eb 59       	subi	r30, 0x9B	; 155
    19e8:	fe 4f       	sbci	r31, 0xFE	; 254
    19ea:	80 81       	ld	r24, Z
    19ec:	80 93 c6 00 	sts	0x00C6, r24
    19f0:	05 c0       	rjmp	.+10     	; 0x19fc <__vector_19+0x42>
    }else{
        /* tx buffer empty, disable UDRE interrupt */
        UART0_CONTROL &= ~_BV(UART0_UDRIE);
    19f2:	e1 ec       	ldi	r30, 0xC1	; 193
    19f4:	f0 e0       	ldi	r31, 0x00	; 0
    19f6:	80 81       	ld	r24, Z
    19f8:	8f 7d       	andi	r24, 0xDF	; 223
    19fa:	80 83       	st	Z, r24
    }
}
    19fc:	ff 91       	pop	r31
    19fe:	ef 91       	pop	r30
    1a00:	9f 91       	pop	r25
    1a02:	8f 91       	pop	r24
    1a04:	0f 90       	pop	r0
    1a06:	0f be       	out	0x3f, r0	; 63
    1a08:	0f 90       	pop	r0
    1a0a:	1f 90       	pop	r1
    1a0c:	18 95       	reti

00001a0e <uart_init>:
Input:    baudrate using macro UART_BAUD_SELECT()
Returns:  none
**************************************************************************/
void uart_init(unsigned int baudrate)
{
    UART_TxHead = 0;
    1a0e:	10 92 44 01 	sts	0x0144, r1
    UART_TxTail = 0;
    1a12:	10 92 43 01 	sts	0x0143, r1
    UART_RxHead = 0;
    1a16:	10 92 42 01 	sts	0x0142, r1
    UART_RxTail = 0;
    1a1a:	10 92 41 01 	sts	0x0141, r1
    /* Set baud rate */
	
	
	
	
    if ( baudrate & 0x8000 ) 
    1a1e:	99 23       	and	r25, r25
    1a20:	24 f4       	brge	.+8      	; 0x1a2a <uart_init+0x1c>
    {
   		UART0_STATUS = (1<<U2X0);  //Enable 2x speed 
    1a22:	22 e0       	ldi	r18, 0x02	; 2
    1a24:	20 93 c0 00 	sts	0x00C0, r18
   		baudrate &= ~0x8000;
    1a28:	9f 77       	andi	r25, 0x7F	; 127
   	}
	   
	   
	   
    UBRR0H = (unsigned char)(baudrate>>8);
    1a2a:	90 93 c5 00 	sts	0x00C5, r25
    UBRR0L = (unsigned char) baudrate;
    1a2e:	80 93 c4 00 	sts	0x00C4, r24

    /* Enable USART receiver and transmitter and receive complete interrupt */
    UART0_CONTROL = (RXCIE0)|(1<<RXEN0)|(1<<TXEN0);
    1a32:	8f e1       	ldi	r24, 0x1F	; 31
    1a34:	80 93 c1 00 	sts	0x00C1, r24
    
    /* Set frame format: asynchronous, 8data, no parity, 1stop bit */
    #ifdef URSEL0
    UCSR0C = (1<<URSEL0)|(3<<UCSZ00);
    #else
    UCSR0C = (1<<UCSZ00)|(1<<UCSZ01);
    1a38:	86 e0       	ldi	r24, 0x06	; 6
    1a3a:	80 93 c2 00 	sts	0x00C2, r24
    1a3e:	08 95       	ret

00001a40 <uart_putc>:
void uart_putc(unsigned char data)
{
    unsigned char tmphead;

    
    tmphead  = (UART_TxHead + 1) & UART_TX_BUFFER_MASK;
    1a40:	20 91 44 01 	lds	r18, 0x0144
    1a44:	2f 5f       	subi	r18, 0xFF	; 255
    1a46:	2f 71       	andi	r18, 0x1F	; 31
    
    while ( tmphead == UART_TxTail ){
    1a48:	90 91 43 01 	lds	r25, 0x0143
    1a4c:	29 17       	cp	r18, r25
    1a4e:	e1 f3       	breq	.-8      	; 0x1a48 <uart_putc+0x8>
        ;/* wait for free space in buffer */
    }
    
    UART_TxBuf[tmphead] = data;
    1a50:	e2 2f       	mov	r30, r18
    1a52:	f0 e0       	ldi	r31, 0x00	; 0
    1a54:	eb 59       	subi	r30, 0x9B	; 155
    1a56:	fe 4f       	sbci	r31, 0xFE	; 254
    1a58:	80 83       	st	Z, r24
    UART_TxHead = tmphead;
    1a5a:	20 93 44 01 	sts	0x0144, r18

    /* enable UDRE interrupt */
    UART0_CONTROL    |= _BV(UART0_UDRIE);
    1a5e:	e1 ec       	ldi	r30, 0xC1	; 193
    1a60:	f0 e0       	ldi	r31, 0x00	; 0
    1a62:	80 81       	ld	r24, Z
    1a64:	80 62       	ori	r24, 0x20	; 32
    1a66:	80 83       	st	Z, r24
    1a68:	08 95       	ret

00001a6a <uart_puts>:
Purpose:  transmit string to UART
Input:    string to be transmitted
Returns:  none          
**************************************************************************/
void uart_puts(const char *s )
{
    1a6a:	cf 93       	push	r28
    1a6c:	df 93       	push	r29
    1a6e:	ec 01       	movw	r28, r24
    while (*s) 
    1a70:	88 81       	ld	r24, Y
    1a72:	88 23       	and	r24, r24
    1a74:	31 f0       	breq	.+12     	; 0x1a82 <uart_puts+0x18>
    1a76:	21 96       	adiw	r28, 0x01	; 1
      uart_putc(*s++);
    1a78:	0e 94 20 0d 	call	0x1a40	; 0x1a40 <uart_putc>
Input:    string to be transmitted
Returns:  none          
**************************************************************************/
void uart_puts(const char *s )
{
    while (*s) 
    1a7c:	89 91       	ld	r24, Y+
    1a7e:	81 11       	cpse	r24, r1
    1a80:	fb cf       	rjmp	.-10     	; 0x1a78 <uart_puts+0xe>
      uart_putc(*s++);

}/* uart_puts */
    1a82:	df 91       	pop	r29
    1a84:	cf 91       	pop	r28
    1a86:	08 95       	ret

00001a88 <__subsf3>:
    1a88:	50 58       	subi	r21, 0x80	; 128

00001a8a <__addsf3>:
    1a8a:	bb 27       	eor	r27, r27
    1a8c:	aa 27       	eor	r26, r26
    1a8e:	0e d0       	rcall	.+28     	; 0x1aac <__addsf3x>
    1a90:	3f c2       	rjmp	.+1150   	; 0x1f10 <__fp_round>
    1a92:	30 d2       	rcall	.+1120   	; 0x1ef4 <__fp_pscA>
    1a94:	30 f0       	brcs	.+12     	; 0x1aa2 <__addsf3+0x18>
    1a96:	35 d2       	rcall	.+1130   	; 0x1f02 <__fp_pscB>
    1a98:	20 f0       	brcs	.+8      	; 0x1aa2 <__addsf3+0x18>
    1a9a:	31 f4       	brne	.+12     	; 0x1aa8 <__addsf3+0x1e>
    1a9c:	9f 3f       	cpi	r25, 0xFF	; 255
    1a9e:	11 f4       	brne	.+4      	; 0x1aa4 <__addsf3+0x1a>
    1aa0:	1e f4       	brtc	.+6      	; 0x1aa8 <__addsf3+0x1e>
    1aa2:	ef c1       	rjmp	.+990    	; 0x1e82 <__fp_nan>
    1aa4:	0e f4       	brtc	.+2      	; 0x1aa8 <__addsf3+0x1e>
    1aa6:	e0 95       	com	r30
    1aa8:	e7 fb       	bst	r30, 7
    1aaa:	e5 c1       	rjmp	.+970    	; 0x1e76 <__fp_inf>

00001aac <__addsf3x>:
    1aac:	e9 2f       	mov	r30, r25
    1aae:	41 d2       	rcall	.+1154   	; 0x1f32 <__fp_split3>
    1ab0:	80 f3       	brcs	.-32     	; 0x1a92 <__addsf3+0x8>
    1ab2:	ba 17       	cp	r27, r26
    1ab4:	62 07       	cpc	r22, r18
    1ab6:	73 07       	cpc	r23, r19
    1ab8:	84 07       	cpc	r24, r20
    1aba:	95 07       	cpc	r25, r21
    1abc:	18 f0       	brcs	.+6      	; 0x1ac4 <__addsf3x+0x18>
    1abe:	71 f4       	brne	.+28     	; 0x1adc <__addsf3x+0x30>
    1ac0:	9e f5       	brtc	.+102    	; 0x1b28 <__addsf3x+0x7c>
    1ac2:	59 c2       	rjmp	.+1202   	; 0x1f76 <__fp_zero>
    1ac4:	0e f4       	brtc	.+2      	; 0x1ac8 <__addsf3x+0x1c>
    1ac6:	e0 95       	com	r30
    1ac8:	0b 2e       	mov	r0, r27
    1aca:	ba 2f       	mov	r27, r26
    1acc:	a0 2d       	mov	r26, r0
    1ace:	0b 01       	movw	r0, r22
    1ad0:	b9 01       	movw	r22, r18
    1ad2:	90 01       	movw	r18, r0
    1ad4:	0c 01       	movw	r0, r24
    1ad6:	ca 01       	movw	r24, r20
    1ad8:	a0 01       	movw	r20, r0
    1ada:	11 24       	eor	r1, r1
    1adc:	ff 27       	eor	r31, r31
    1ade:	59 1b       	sub	r21, r25
    1ae0:	99 f0       	breq	.+38     	; 0x1b08 <__addsf3x+0x5c>
    1ae2:	59 3f       	cpi	r21, 0xF9	; 249
    1ae4:	50 f4       	brcc	.+20     	; 0x1afa <__addsf3x+0x4e>
    1ae6:	50 3e       	cpi	r21, 0xE0	; 224
    1ae8:	68 f1       	brcs	.+90     	; 0x1b44 <__addsf3x+0x98>
    1aea:	1a 16       	cp	r1, r26
    1aec:	f0 40       	sbci	r31, 0x00	; 0
    1aee:	a2 2f       	mov	r26, r18
    1af0:	23 2f       	mov	r18, r19
    1af2:	34 2f       	mov	r19, r20
    1af4:	44 27       	eor	r20, r20
    1af6:	58 5f       	subi	r21, 0xF8	; 248
    1af8:	f3 cf       	rjmp	.-26     	; 0x1ae0 <__addsf3x+0x34>
    1afa:	46 95       	lsr	r20
    1afc:	37 95       	ror	r19
    1afe:	27 95       	ror	r18
    1b00:	a7 95       	ror	r26
    1b02:	f0 40       	sbci	r31, 0x00	; 0
    1b04:	53 95       	inc	r21
    1b06:	c9 f7       	brne	.-14     	; 0x1afa <__addsf3x+0x4e>
    1b08:	7e f4       	brtc	.+30     	; 0x1b28 <__addsf3x+0x7c>
    1b0a:	1f 16       	cp	r1, r31
    1b0c:	ba 0b       	sbc	r27, r26
    1b0e:	62 0b       	sbc	r22, r18
    1b10:	73 0b       	sbc	r23, r19
    1b12:	84 0b       	sbc	r24, r20
    1b14:	ba f0       	brmi	.+46     	; 0x1b44 <__addsf3x+0x98>
    1b16:	91 50       	subi	r25, 0x01	; 1
    1b18:	a1 f0       	breq	.+40     	; 0x1b42 <__addsf3x+0x96>
    1b1a:	ff 0f       	add	r31, r31
    1b1c:	bb 1f       	adc	r27, r27
    1b1e:	66 1f       	adc	r22, r22
    1b20:	77 1f       	adc	r23, r23
    1b22:	88 1f       	adc	r24, r24
    1b24:	c2 f7       	brpl	.-16     	; 0x1b16 <__addsf3x+0x6a>
    1b26:	0e c0       	rjmp	.+28     	; 0x1b44 <__addsf3x+0x98>
    1b28:	ba 0f       	add	r27, r26
    1b2a:	62 1f       	adc	r22, r18
    1b2c:	73 1f       	adc	r23, r19
    1b2e:	84 1f       	adc	r24, r20
    1b30:	48 f4       	brcc	.+18     	; 0x1b44 <__addsf3x+0x98>
    1b32:	87 95       	ror	r24
    1b34:	77 95       	ror	r23
    1b36:	67 95       	ror	r22
    1b38:	b7 95       	ror	r27
    1b3a:	f7 95       	ror	r31
    1b3c:	9e 3f       	cpi	r25, 0xFE	; 254
    1b3e:	08 f0       	brcs	.+2      	; 0x1b42 <__addsf3x+0x96>
    1b40:	b3 cf       	rjmp	.-154    	; 0x1aa8 <__addsf3+0x1e>
    1b42:	93 95       	inc	r25
    1b44:	88 0f       	add	r24, r24
    1b46:	08 f0       	brcs	.+2      	; 0x1b4a <__addsf3x+0x9e>
    1b48:	99 27       	eor	r25, r25
    1b4a:	ee 0f       	add	r30, r30
    1b4c:	97 95       	ror	r25
    1b4e:	87 95       	ror	r24
    1b50:	08 95       	ret

00001b52 <asin>:
    1b52:	9f 93       	push	r25
    1b54:	9f 77       	andi	r25, 0x7F	; 127
    1b56:	ee e3       	ldi	r30, 0x3E	; 62
    1b58:	89 37       	cpi	r24, 0x79	; 121
    1b5a:	9e 07       	cpc	r25, r30
    1b5c:	20 f4       	brcc	.+8      	; 0x1b66 <asin+0x14>
    1b5e:	e8 e6       	ldi	r30, 0x68	; 104
    1b60:	f0 e0       	ldi	r31, 0x00	; 0
    1b62:	b7 d1       	rcall	.+878    	; 0x1ed2 <__fp_powsodd>
    1b64:	09 c0       	rjmp	.+18     	; 0x1b78 <asin+0x26>
    1b66:	48 d1       	rcall	.+656    	; 0x1df8 <__fp_arccos>
    1b68:	90 58       	subi	r25, 0x80	; 128
    1b6a:	a2 ea       	ldi	r26, 0xA2	; 162
    1b6c:	2a ed       	ldi	r18, 0xDA	; 218
    1b6e:	3f e0       	ldi	r19, 0x0F	; 15
    1b70:	49 ec       	ldi	r20, 0xC9	; 201
    1b72:	5f e3       	ldi	r21, 0x3F	; 63
    1b74:	9b df       	rcall	.-202    	; 0x1aac <__addsf3x>
    1b76:	cc d1       	rcall	.+920    	; 0x1f10 <__fp_round>
    1b78:	0f 90       	pop	r0
    1b7a:	07 fc       	sbrc	r0, 7
    1b7c:	90 58       	subi	r25, 0x80	; 128
    1b7e:	08 95       	ret
    1b80:	b9 d1       	rcall	.+882    	; 0x1ef4 <__fp_pscA>
    1b82:	58 f0       	brcs	.+22     	; 0x1b9a <asin+0x48>
    1b84:	80 e8       	ldi	r24, 0x80	; 128
    1b86:	91 e0       	ldi	r25, 0x01	; 1
    1b88:	09 f4       	brne	.+2      	; 0x1b8c <asin+0x3a>
    1b8a:	9e ef       	ldi	r25, 0xFE	; 254
    1b8c:	ba d1       	rcall	.+884    	; 0x1f02 <__fp_pscB>
    1b8e:	28 f0       	brcs	.+10     	; 0x1b9a <asin+0x48>
    1b90:	40 e8       	ldi	r20, 0x80	; 128
    1b92:	51 e0       	ldi	r21, 0x01	; 1
    1b94:	59 f4       	brne	.+22     	; 0x1bac <atan2+0xe>
    1b96:	5e ef       	ldi	r21, 0xFE	; 254
    1b98:	09 c0       	rjmp	.+18     	; 0x1bac <atan2+0xe>
    1b9a:	73 c1       	rjmp	.+742    	; 0x1e82 <__fp_nan>
    1b9c:	ec c1       	rjmp	.+984    	; 0x1f76 <__fp_zero>

00001b9e <atan2>:
    1b9e:	e9 2f       	mov	r30, r25
    1ba0:	e0 78       	andi	r30, 0x80	; 128
    1ba2:	c7 d1       	rcall	.+910    	; 0x1f32 <__fp_split3>
    1ba4:	68 f3       	brcs	.-38     	; 0x1b80 <asin+0x2e>
    1ba6:	09 2e       	mov	r0, r25
    1ba8:	05 2a       	or	r0, r21
    1baa:	c1 f3       	breq	.-16     	; 0x1b9c <asin+0x4a>
    1bac:	26 17       	cp	r18, r22
    1bae:	37 07       	cpc	r19, r23
    1bb0:	48 07       	cpc	r20, r24
    1bb2:	59 07       	cpc	r21, r25
    1bb4:	38 f0       	brcs	.+14     	; 0x1bc4 <atan2+0x26>
    1bb6:	0e 2e       	mov	r0, r30
    1bb8:	07 f8       	bld	r0, 7
    1bba:	e0 25       	eor	r30, r0
    1bbc:	69 f0       	breq	.+26     	; 0x1bd8 <atan2+0x3a>
    1bbe:	e0 25       	eor	r30, r0
    1bc0:	e0 64       	ori	r30, 0x40	; 64
    1bc2:	0a c0       	rjmp	.+20     	; 0x1bd8 <atan2+0x3a>
    1bc4:	ef 63       	ori	r30, 0x3F	; 63
    1bc6:	07 f8       	bld	r0, 7
    1bc8:	00 94       	com	r0
    1bca:	07 fa       	bst	r0, 7
    1bcc:	db 01       	movw	r26, r22
    1bce:	b9 01       	movw	r22, r18
    1bd0:	9d 01       	movw	r18, r26
    1bd2:	dc 01       	movw	r26, r24
    1bd4:	ca 01       	movw	r24, r20
    1bd6:	ad 01       	movw	r20, r26
    1bd8:	ef 93       	push	r30
    1bda:	47 d0       	rcall	.+142    	; 0x1c6a <__divsf3_pse>
    1bdc:	99 d1       	rcall	.+818    	; 0x1f10 <__fp_round>
    1bde:	0a d0       	rcall	.+20     	; 0x1bf4 <atan>
    1be0:	5f 91       	pop	r21
    1be2:	55 23       	and	r21, r21
    1be4:	31 f0       	breq	.+12     	; 0x1bf2 <atan2+0x54>
    1be6:	2b ed       	ldi	r18, 0xDB	; 219
    1be8:	3f e0       	ldi	r19, 0x0F	; 15
    1bea:	49 e4       	ldi	r20, 0x49	; 73
    1bec:	50 fd       	sbrc	r21, 0
    1bee:	49 ec       	ldi	r20, 0xC9	; 201
    1bf0:	4c cf       	rjmp	.-360    	; 0x1a8a <__addsf3>
    1bf2:	08 95       	ret

00001bf4 <atan>:
    1bf4:	df 93       	push	r29
    1bf6:	dd 27       	eor	r29, r29
    1bf8:	b9 2f       	mov	r27, r25
    1bfa:	bf 77       	andi	r27, 0x7F	; 127
    1bfc:	40 e8       	ldi	r20, 0x80	; 128
    1bfe:	5f e3       	ldi	r21, 0x3F	; 63
    1c00:	16 16       	cp	r1, r22
    1c02:	17 06       	cpc	r1, r23
    1c04:	48 07       	cpc	r20, r24
    1c06:	5b 07       	cpc	r21, r27
    1c08:	10 f4       	brcc	.+4      	; 0x1c0e <atan+0x1a>
    1c0a:	d9 2f       	mov	r29, r25
    1c0c:	bb d1       	rcall	.+886    	; 0x1f84 <inverse>
    1c0e:	9f 93       	push	r25
    1c10:	8f 93       	push	r24
    1c12:	7f 93       	push	r23
    1c14:	6f 93       	push	r22
    1c16:	62 d2       	rcall	.+1220   	; 0x20dc <square>
    1c18:	ec e7       	ldi	r30, 0x7C	; 124
    1c1a:	f0 e0       	ldi	r31, 0x00	; 0
    1c1c:	35 d1       	rcall	.+618    	; 0x1e88 <__fp_powser>
    1c1e:	78 d1       	rcall	.+752    	; 0x1f10 <__fp_round>
    1c20:	2f 91       	pop	r18
    1c22:	3f 91       	pop	r19
    1c24:	4f 91       	pop	r20
    1c26:	5f 91       	pop	r21
    1c28:	c0 d1       	rcall	.+896    	; 0x1faa <__mulsf3x>
    1c2a:	dd 23       	and	r29, r29
    1c2c:	49 f0       	breq	.+18     	; 0x1c40 <atan+0x4c>
    1c2e:	90 58       	subi	r25, 0x80	; 128
    1c30:	a2 ea       	ldi	r26, 0xA2	; 162
    1c32:	2a ed       	ldi	r18, 0xDA	; 218
    1c34:	3f e0       	ldi	r19, 0x0F	; 15
    1c36:	49 ec       	ldi	r20, 0xC9	; 201
    1c38:	5f e3       	ldi	r21, 0x3F	; 63
    1c3a:	d0 78       	andi	r29, 0x80	; 128
    1c3c:	5d 27       	eor	r21, r29
    1c3e:	36 df       	rcall	.-404    	; 0x1aac <__addsf3x>
    1c40:	df 91       	pop	r29
    1c42:	66 c1       	rjmp	.+716    	; 0x1f10 <__fp_round>

00001c44 <__cmpsf2>:
    1c44:	f4 d0       	rcall	.+488    	; 0x1e2e <__fp_cmp>
    1c46:	08 f4       	brcc	.+2      	; 0x1c4a <__cmpsf2+0x6>
    1c48:	81 e0       	ldi	r24, 0x01	; 1
    1c4a:	08 95       	ret

00001c4c <__divsf3>:
    1c4c:	0c d0       	rcall	.+24     	; 0x1c66 <__divsf3x>
    1c4e:	60 c1       	rjmp	.+704    	; 0x1f10 <__fp_round>
    1c50:	58 d1       	rcall	.+688    	; 0x1f02 <__fp_pscB>
    1c52:	40 f0       	brcs	.+16     	; 0x1c64 <__divsf3+0x18>
    1c54:	4f d1       	rcall	.+670    	; 0x1ef4 <__fp_pscA>
    1c56:	30 f0       	brcs	.+12     	; 0x1c64 <__divsf3+0x18>
    1c58:	21 f4       	brne	.+8      	; 0x1c62 <__divsf3+0x16>
    1c5a:	5f 3f       	cpi	r21, 0xFF	; 255
    1c5c:	19 f0       	breq	.+6      	; 0x1c64 <__divsf3+0x18>
    1c5e:	0b c1       	rjmp	.+534    	; 0x1e76 <__fp_inf>
    1c60:	51 11       	cpse	r21, r1
    1c62:	8a c1       	rjmp	.+788    	; 0x1f78 <__fp_szero>
    1c64:	0e c1       	rjmp	.+540    	; 0x1e82 <__fp_nan>

00001c66 <__divsf3x>:
    1c66:	65 d1       	rcall	.+714    	; 0x1f32 <__fp_split3>
    1c68:	98 f3       	brcs	.-26     	; 0x1c50 <__divsf3+0x4>

00001c6a <__divsf3_pse>:
    1c6a:	99 23       	and	r25, r25
    1c6c:	c9 f3       	breq	.-14     	; 0x1c60 <__divsf3+0x14>
    1c6e:	55 23       	and	r21, r21
    1c70:	b1 f3       	breq	.-20     	; 0x1c5e <__divsf3+0x12>
    1c72:	95 1b       	sub	r25, r21
    1c74:	55 0b       	sbc	r21, r21
    1c76:	bb 27       	eor	r27, r27
    1c78:	aa 27       	eor	r26, r26
    1c7a:	62 17       	cp	r22, r18
    1c7c:	73 07       	cpc	r23, r19
    1c7e:	84 07       	cpc	r24, r20
    1c80:	38 f0       	brcs	.+14     	; 0x1c90 <__divsf3_pse+0x26>
    1c82:	9f 5f       	subi	r25, 0xFF	; 255
    1c84:	5f 4f       	sbci	r21, 0xFF	; 255
    1c86:	22 0f       	add	r18, r18
    1c88:	33 1f       	adc	r19, r19
    1c8a:	44 1f       	adc	r20, r20
    1c8c:	aa 1f       	adc	r26, r26
    1c8e:	a9 f3       	breq	.-22     	; 0x1c7a <__divsf3_pse+0x10>
    1c90:	33 d0       	rcall	.+102    	; 0x1cf8 <__divsf3_pse+0x8e>
    1c92:	0e 2e       	mov	r0, r30
    1c94:	3a f0       	brmi	.+14     	; 0x1ca4 <__divsf3_pse+0x3a>
    1c96:	e0 e8       	ldi	r30, 0x80	; 128
    1c98:	30 d0       	rcall	.+96     	; 0x1cfa <__divsf3_pse+0x90>
    1c9a:	91 50       	subi	r25, 0x01	; 1
    1c9c:	50 40       	sbci	r21, 0x00	; 0
    1c9e:	e6 95       	lsr	r30
    1ca0:	00 1c       	adc	r0, r0
    1ca2:	ca f7       	brpl	.-14     	; 0x1c96 <__divsf3_pse+0x2c>
    1ca4:	29 d0       	rcall	.+82     	; 0x1cf8 <__divsf3_pse+0x8e>
    1ca6:	fe 2f       	mov	r31, r30
    1ca8:	27 d0       	rcall	.+78     	; 0x1cf8 <__divsf3_pse+0x8e>
    1caa:	66 0f       	add	r22, r22
    1cac:	77 1f       	adc	r23, r23
    1cae:	88 1f       	adc	r24, r24
    1cb0:	bb 1f       	adc	r27, r27
    1cb2:	26 17       	cp	r18, r22
    1cb4:	37 07       	cpc	r19, r23
    1cb6:	48 07       	cpc	r20, r24
    1cb8:	ab 07       	cpc	r26, r27
    1cba:	b0 e8       	ldi	r27, 0x80	; 128
    1cbc:	09 f0       	breq	.+2      	; 0x1cc0 <__divsf3_pse+0x56>
    1cbe:	bb 0b       	sbc	r27, r27
    1cc0:	80 2d       	mov	r24, r0
    1cc2:	bf 01       	movw	r22, r30
    1cc4:	ff 27       	eor	r31, r31
    1cc6:	93 58       	subi	r25, 0x83	; 131
    1cc8:	5f 4f       	sbci	r21, 0xFF	; 255
    1cca:	2a f0       	brmi	.+10     	; 0x1cd6 <__divsf3_pse+0x6c>
    1ccc:	9e 3f       	cpi	r25, 0xFE	; 254
    1cce:	51 05       	cpc	r21, r1
    1cd0:	68 f0       	brcs	.+26     	; 0x1cec <__divsf3_pse+0x82>
    1cd2:	d1 c0       	rjmp	.+418    	; 0x1e76 <__fp_inf>
    1cd4:	51 c1       	rjmp	.+674    	; 0x1f78 <__fp_szero>
    1cd6:	5f 3f       	cpi	r21, 0xFF	; 255
    1cd8:	ec f3       	brlt	.-6      	; 0x1cd4 <__divsf3_pse+0x6a>
    1cda:	98 3e       	cpi	r25, 0xE8	; 232
    1cdc:	dc f3       	brlt	.-10     	; 0x1cd4 <__divsf3_pse+0x6a>
    1cde:	86 95       	lsr	r24
    1ce0:	77 95       	ror	r23
    1ce2:	67 95       	ror	r22
    1ce4:	b7 95       	ror	r27
    1ce6:	f7 95       	ror	r31
    1ce8:	9f 5f       	subi	r25, 0xFF	; 255
    1cea:	c9 f7       	brne	.-14     	; 0x1cde <__divsf3_pse+0x74>
    1cec:	88 0f       	add	r24, r24
    1cee:	91 1d       	adc	r25, r1
    1cf0:	96 95       	lsr	r25
    1cf2:	87 95       	ror	r24
    1cf4:	97 f9       	bld	r25, 7
    1cf6:	08 95       	ret
    1cf8:	e1 e0       	ldi	r30, 0x01	; 1
    1cfa:	66 0f       	add	r22, r22
    1cfc:	77 1f       	adc	r23, r23
    1cfe:	88 1f       	adc	r24, r24
    1d00:	bb 1f       	adc	r27, r27
    1d02:	62 17       	cp	r22, r18
    1d04:	73 07       	cpc	r23, r19
    1d06:	84 07       	cpc	r24, r20
    1d08:	ba 07       	cpc	r27, r26
    1d0a:	20 f0       	brcs	.+8      	; 0x1d14 <__divsf3_pse+0xaa>
    1d0c:	62 1b       	sub	r22, r18
    1d0e:	73 0b       	sbc	r23, r19
    1d10:	84 0b       	sbc	r24, r20
    1d12:	ba 0b       	sbc	r27, r26
    1d14:	ee 1f       	adc	r30, r30
    1d16:	88 f7       	brcc	.-30     	; 0x1cfa <__divsf3_pse+0x90>
    1d18:	e0 95       	com	r30
    1d1a:	08 95       	ret

00001d1c <__fixsfsi>:
    1d1c:	04 d0       	rcall	.+8      	; 0x1d26 <__fixunssfsi>
    1d1e:	68 94       	set
    1d20:	b1 11       	cpse	r27, r1
    1d22:	2a c1       	rjmp	.+596    	; 0x1f78 <__fp_szero>
    1d24:	08 95       	ret

00001d26 <__fixunssfsi>:
    1d26:	0d d1       	rcall	.+538    	; 0x1f42 <__fp_splitA>
    1d28:	88 f0       	brcs	.+34     	; 0x1d4c <__fixunssfsi+0x26>
    1d2a:	9f 57       	subi	r25, 0x7F	; 127
    1d2c:	90 f0       	brcs	.+36     	; 0x1d52 <__fixunssfsi+0x2c>
    1d2e:	b9 2f       	mov	r27, r25
    1d30:	99 27       	eor	r25, r25
    1d32:	b7 51       	subi	r27, 0x17	; 23
    1d34:	a0 f0       	brcs	.+40     	; 0x1d5e <__fixunssfsi+0x38>
    1d36:	d1 f0       	breq	.+52     	; 0x1d6c <__fixunssfsi+0x46>
    1d38:	66 0f       	add	r22, r22
    1d3a:	77 1f       	adc	r23, r23
    1d3c:	88 1f       	adc	r24, r24
    1d3e:	99 1f       	adc	r25, r25
    1d40:	1a f0       	brmi	.+6      	; 0x1d48 <__fixunssfsi+0x22>
    1d42:	ba 95       	dec	r27
    1d44:	c9 f7       	brne	.-14     	; 0x1d38 <__fixunssfsi+0x12>
    1d46:	12 c0       	rjmp	.+36     	; 0x1d6c <__fixunssfsi+0x46>
    1d48:	b1 30       	cpi	r27, 0x01	; 1
    1d4a:	81 f0       	breq	.+32     	; 0x1d6c <__fixunssfsi+0x46>
    1d4c:	14 d1       	rcall	.+552    	; 0x1f76 <__fp_zero>
    1d4e:	b1 e0       	ldi	r27, 0x01	; 1
    1d50:	08 95       	ret
    1d52:	11 c1       	rjmp	.+546    	; 0x1f76 <__fp_zero>
    1d54:	67 2f       	mov	r22, r23
    1d56:	78 2f       	mov	r23, r24
    1d58:	88 27       	eor	r24, r24
    1d5a:	b8 5f       	subi	r27, 0xF8	; 248
    1d5c:	39 f0       	breq	.+14     	; 0x1d6c <__fixunssfsi+0x46>
    1d5e:	b9 3f       	cpi	r27, 0xF9	; 249
    1d60:	cc f3       	brlt	.-14     	; 0x1d54 <__fixunssfsi+0x2e>
    1d62:	86 95       	lsr	r24
    1d64:	77 95       	ror	r23
    1d66:	67 95       	ror	r22
    1d68:	b3 95       	inc	r27
    1d6a:	d9 f7       	brne	.-10     	; 0x1d62 <__fixunssfsi+0x3c>
    1d6c:	3e f4       	brtc	.+14     	; 0x1d7c <__fixunssfsi+0x56>
    1d6e:	90 95       	com	r25
    1d70:	80 95       	com	r24
    1d72:	70 95       	com	r23
    1d74:	61 95       	neg	r22
    1d76:	7f 4f       	sbci	r23, 0xFF	; 255
    1d78:	8f 4f       	sbci	r24, 0xFF	; 255
    1d7a:	9f 4f       	sbci	r25, 0xFF	; 255
    1d7c:	08 95       	ret

00001d7e <__floatunsisf>:
    1d7e:	e8 94       	clt
    1d80:	09 c0       	rjmp	.+18     	; 0x1d94 <__floatsisf+0x12>

00001d82 <__floatsisf>:
    1d82:	97 fb       	bst	r25, 7
    1d84:	3e f4       	brtc	.+14     	; 0x1d94 <__floatsisf+0x12>
    1d86:	90 95       	com	r25
    1d88:	80 95       	com	r24
    1d8a:	70 95       	com	r23
    1d8c:	61 95       	neg	r22
    1d8e:	7f 4f       	sbci	r23, 0xFF	; 255
    1d90:	8f 4f       	sbci	r24, 0xFF	; 255
    1d92:	9f 4f       	sbci	r25, 0xFF	; 255
    1d94:	99 23       	and	r25, r25
    1d96:	a9 f0       	breq	.+42     	; 0x1dc2 <__floatsisf+0x40>
    1d98:	f9 2f       	mov	r31, r25
    1d9a:	96 e9       	ldi	r25, 0x96	; 150
    1d9c:	bb 27       	eor	r27, r27
    1d9e:	93 95       	inc	r25
    1da0:	f6 95       	lsr	r31
    1da2:	87 95       	ror	r24
    1da4:	77 95       	ror	r23
    1da6:	67 95       	ror	r22
    1da8:	b7 95       	ror	r27
    1daa:	f1 11       	cpse	r31, r1
    1dac:	f8 cf       	rjmp	.-16     	; 0x1d9e <__floatsisf+0x1c>
    1dae:	fa f4       	brpl	.+62     	; 0x1dee <__floatsisf+0x6c>
    1db0:	bb 0f       	add	r27, r27
    1db2:	11 f4       	brne	.+4      	; 0x1db8 <__floatsisf+0x36>
    1db4:	60 ff       	sbrs	r22, 0
    1db6:	1b c0       	rjmp	.+54     	; 0x1dee <__floatsisf+0x6c>
    1db8:	6f 5f       	subi	r22, 0xFF	; 255
    1dba:	7f 4f       	sbci	r23, 0xFF	; 255
    1dbc:	8f 4f       	sbci	r24, 0xFF	; 255
    1dbe:	9f 4f       	sbci	r25, 0xFF	; 255
    1dc0:	16 c0       	rjmp	.+44     	; 0x1dee <__floatsisf+0x6c>
    1dc2:	88 23       	and	r24, r24
    1dc4:	11 f0       	breq	.+4      	; 0x1dca <__floatsisf+0x48>
    1dc6:	96 e9       	ldi	r25, 0x96	; 150
    1dc8:	11 c0       	rjmp	.+34     	; 0x1dec <__floatsisf+0x6a>
    1dca:	77 23       	and	r23, r23
    1dcc:	21 f0       	breq	.+8      	; 0x1dd6 <__floatsisf+0x54>
    1dce:	9e e8       	ldi	r25, 0x8E	; 142
    1dd0:	87 2f       	mov	r24, r23
    1dd2:	76 2f       	mov	r23, r22
    1dd4:	05 c0       	rjmp	.+10     	; 0x1de0 <__floatsisf+0x5e>
    1dd6:	66 23       	and	r22, r22
    1dd8:	71 f0       	breq	.+28     	; 0x1df6 <__floatsisf+0x74>
    1dda:	96 e8       	ldi	r25, 0x86	; 134
    1ddc:	86 2f       	mov	r24, r22
    1dde:	70 e0       	ldi	r23, 0x00	; 0
    1de0:	60 e0       	ldi	r22, 0x00	; 0
    1de2:	2a f0       	brmi	.+10     	; 0x1dee <__floatsisf+0x6c>
    1de4:	9a 95       	dec	r25
    1de6:	66 0f       	add	r22, r22
    1de8:	77 1f       	adc	r23, r23
    1dea:	88 1f       	adc	r24, r24
    1dec:	da f7       	brpl	.-10     	; 0x1de4 <__floatsisf+0x62>
    1dee:	88 0f       	add	r24, r24
    1df0:	96 95       	lsr	r25
    1df2:	87 95       	ror	r24
    1df4:	97 f9       	bld	r25, 7
    1df6:	08 95       	ret

00001df8 <__fp_arccos>:
    1df8:	df 93       	push	r29
    1dfa:	cf 93       	push	r28
    1dfc:	1f 93       	push	r17
    1dfe:	0f 93       	push	r16
    1e00:	8b 01       	movw	r16, r22
    1e02:	ec 01       	movw	r28, r24
    1e04:	e9 ea       	ldi	r30, 0xA9	; 169
    1e06:	f0 e0       	ldi	r31, 0x00	; 0
    1e08:	3f d0       	rcall	.+126    	; 0x1e88 <__fp_powser>
    1e0a:	82 d0       	rcall	.+260    	; 0x1f10 <__fp_round>
    1e0c:	98 01       	movw	r18, r16
    1e0e:	ae 01       	movw	r20, r28
    1e10:	8b 01       	movw	r16, r22
    1e12:	ec 01       	movw	r28, r24
    1e14:	60 e0       	ldi	r22, 0x00	; 0
    1e16:	70 e0       	ldi	r23, 0x00	; 0
    1e18:	80 e8       	ldi	r24, 0x80	; 128
    1e1a:	9f e3       	ldi	r25, 0x3F	; 63
    1e1c:	35 de       	rcall	.-918    	; 0x1a88 <__subsf3>
    1e1e:	20 d1       	rcall	.+576    	; 0x2060 <sqrt>
    1e20:	98 01       	movw	r18, r16
    1e22:	ae 01       	movw	r20, r28
    1e24:	0f 91       	pop	r16
    1e26:	1f 91       	pop	r17
    1e28:	cf 91       	pop	r28
    1e2a:	df 91       	pop	r29
    1e2c:	be c0       	rjmp	.+380    	; 0x1faa <__mulsf3x>

00001e2e <__fp_cmp>:
    1e2e:	99 0f       	add	r25, r25
    1e30:	00 08       	sbc	r0, r0
    1e32:	55 0f       	add	r21, r21
    1e34:	aa 0b       	sbc	r26, r26
    1e36:	e0 e8       	ldi	r30, 0x80	; 128
    1e38:	fe ef       	ldi	r31, 0xFE	; 254
    1e3a:	16 16       	cp	r1, r22
    1e3c:	17 06       	cpc	r1, r23
    1e3e:	e8 07       	cpc	r30, r24
    1e40:	f9 07       	cpc	r31, r25
    1e42:	c0 f0       	brcs	.+48     	; 0x1e74 <__fp_cmp+0x46>
    1e44:	12 16       	cp	r1, r18
    1e46:	13 06       	cpc	r1, r19
    1e48:	e4 07       	cpc	r30, r20
    1e4a:	f5 07       	cpc	r31, r21
    1e4c:	98 f0       	brcs	.+38     	; 0x1e74 <__fp_cmp+0x46>
    1e4e:	62 1b       	sub	r22, r18
    1e50:	73 0b       	sbc	r23, r19
    1e52:	84 0b       	sbc	r24, r20
    1e54:	95 0b       	sbc	r25, r21
    1e56:	39 f4       	brne	.+14     	; 0x1e66 <__fp_cmp+0x38>
    1e58:	0a 26       	eor	r0, r26
    1e5a:	61 f0       	breq	.+24     	; 0x1e74 <__fp_cmp+0x46>
    1e5c:	23 2b       	or	r18, r19
    1e5e:	24 2b       	or	r18, r20
    1e60:	25 2b       	or	r18, r21
    1e62:	21 f4       	brne	.+8      	; 0x1e6c <__fp_cmp+0x3e>
    1e64:	08 95       	ret
    1e66:	0a 26       	eor	r0, r26
    1e68:	09 f4       	brne	.+2      	; 0x1e6c <__fp_cmp+0x3e>
    1e6a:	a1 40       	sbci	r26, 0x01	; 1
    1e6c:	a6 95       	lsr	r26
    1e6e:	8f ef       	ldi	r24, 0xFF	; 255
    1e70:	81 1d       	adc	r24, r1
    1e72:	81 1d       	adc	r24, r1
    1e74:	08 95       	ret

00001e76 <__fp_inf>:
    1e76:	97 f9       	bld	r25, 7
    1e78:	9f 67       	ori	r25, 0x7F	; 127
    1e7a:	80 e8       	ldi	r24, 0x80	; 128
    1e7c:	70 e0       	ldi	r23, 0x00	; 0
    1e7e:	60 e0       	ldi	r22, 0x00	; 0
    1e80:	08 95       	ret

00001e82 <__fp_nan>:
    1e82:	9f ef       	ldi	r25, 0xFF	; 255
    1e84:	80 ec       	ldi	r24, 0xC0	; 192
    1e86:	08 95       	ret

00001e88 <__fp_powser>:
    1e88:	df 93       	push	r29
    1e8a:	cf 93       	push	r28
    1e8c:	1f 93       	push	r17
    1e8e:	0f 93       	push	r16
    1e90:	ff 92       	push	r15
    1e92:	ef 92       	push	r14
    1e94:	df 92       	push	r13
    1e96:	7b 01       	movw	r14, r22
    1e98:	8c 01       	movw	r16, r24
    1e9a:	68 94       	set
    1e9c:	05 c0       	rjmp	.+10     	; 0x1ea8 <__fp_powser+0x20>
    1e9e:	da 2e       	mov	r13, r26
    1ea0:	ef 01       	movw	r28, r30
    1ea2:	83 d0       	rcall	.+262    	; 0x1faa <__mulsf3x>
    1ea4:	fe 01       	movw	r30, r28
    1ea6:	e8 94       	clt
    1ea8:	a5 91       	lpm	r26, Z+
    1eaa:	25 91       	lpm	r18, Z+
    1eac:	35 91       	lpm	r19, Z+
    1eae:	45 91       	lpm	r20, Z+
    1eb0:	55 91       	lpm	r21, Z+
    1eb2:	ae f3       	brts	.-22     	; 0x1e9e <__fp_powser+0x16>
    1eb4:	ef 01       	movw	r28, r30
    1eb6:	fa dd       	rcall	.-1036   	; 0x1aac <__addsf3x>
    1eb8:	fe 01       	movw	r30, r28
    1eba:	97 01       	movw	r18, r14
    1ebc:	a8 01       	movw	r20, r16
    1ebe:	da 94       	dec	r13
    1ec0:	79 f7       	brne	.-34     	; 0x1ea0 <__fp_powser+0x18>
    1ec2:	df 90       	pop	r13
    1ec4:	ef 90       	pop	r14
    1ec6:	ff 90       	pop	r15
    1ec8:	0f 91       	pop	r16
    1eca:	1f 91       	pop	r17
    1ecc:	cf 91       	pop	r28
    1ece:	df 91       	pop	r29
    1ed0:	08 95       	ret

00001ed2 <__fp_powsodd>:
    1ed2:	9f 93       	push	r25
    1ed4:	8f 93       	push	r24
    1ed6:	7f 93       	push	r23
    1ed8:	6f 93       	push	r22
    1eda:	ff 93       	push	r31
    1edc:	ef 93       	push	r30
    1ede:	9b 01       	movw	r18, r22
    1ee0:	ac 01       	movw	r20, r24
    1ee2:	57 d0       	rcall	.+174    	; 0x1f92 <__mulsf3>
    1ee4:	ef 91       	pop	r30
    1ee6:	ff 91       	pop	r31
    1ee8:	cf df       	rcall	.-98     	; 0x1e88 <__fp_powser>
    1eea:	2f 91       	pop	r18
    1eec:	3f 91       	pop	r19
    1eee:	4f 91       	pop	r20
    1ef0:	5f 91       	pop	r21
    1ef2:	4f c0       	rjmp	.+158    	; 0x1f92 <__mulsf3>

00001ef4 <__fp_pscA>:
    1ef4:	00 24       	eor	r0, r0
    1ef6:	0a 94       	dec	r0
    1ef8:	16 16       	cp	r1, r22
    1efa:	17 06       	cpc	r1, r23
    1efc:	18 06       	cpc	r1, r24
    1efe:	09 06       	cpc	r0, r25
    1f00:	08 95       	ret

00001f02 <__fp_pscB>:
    1f02:	00 24       	eor	r0, r0
    1f04:	0a 94       	dec	r0
    1f06:	12 16       	cp	r1, r18
    1f08:	13 06       	cpc	r1, r19
    1f0a:	14 06       	cpc	r1, r20
    1f0c:	05 06       	cpc	r0, r21
    1f0e:	08 95       	ret

00001f10 <__fp_round>:
    1f10:	09 2e       	mov	r0, r25
    1f12:	03 94       	inc	r0
    1f14:	00 0c       	add	r0, r0
    1f16:	11 f4       	brne	.+4      	; 0x1f1c <__fp_round+0xc>
    1f18:	88 23       	and	r24, r24
    1f1a:	52 f0       	brmi	.+20     	; 0x1f30 <__fp_round+0x20>
    1f1c:	bb 0f       	add	r27, r27
    1f1e:	40 f4       	brcc	.+16     	; 0x1f30 <__fp_round+0x20>
    1f20:	bf 2b       	or	r27, r31
    1f22:	11 f4       	brne	.+4      	; 0x1f28 <__fp_round+0x18>
    1f24:	60 ff       	sbrs	r22, 0
    1f26:	04 c0       	rjmp	.+8      	; 0x1f30 <__fp_round+0x20>
    1f28:	6f 5f       	subi	r22, 0xFF	; 255
    1f2a:	7f 4f       	sbci	r23, 0xFF	; 255
    1f2c:	8f 4f       	sbci	r24, 0xFF	; 255
    1f2e:	9f 4f       	sbci	r25, 0xFF	; 255
    1f30:	08 95       	ret

00001f32 <__fp_split3>:
    1f32:	57 fd       	sbrc	r21, 7
    1f34:	90 58       	subi	r25, 0x80	; 128
    1f36:	44 0f       	add	r20, r20
    1f38:	55 1f       	adc	r21, r21
    1f3a:	59 f0       	breq	.+22     	; 0x1f52 <__fp_splitA+0x10>
    1f3c:	5f 3f       	cpi	r21, 0xFF	; 255
    1f3e:	71 f0       	breq	.+28     	; 0x1f5c <__fp_splitA+0x1a>
    1f40:	47 95       	ror	r20

00001f42 <__fp_splitA>:
    1f42:	88 0f       	add	r24, r24
    1f44:	97 fb       	bst	r25, 7
    1f46:	99 1f       	adc	r25, r25
    1f48:	61 f0       	breq	.+24     	; 0x1f62 <__fp_splitA+0x20>
    1f4a:	9f 3f       	cpi	r25, 0xFF	; 255
    1f4c:	79 f0       	breq	.+30     	; 0x1f6c <__fp_splitA+0x2a>
    1f4e:	87 95       	ror	r24
    1f50:	08 95       	ret
    1f52:	12 16       	cp	r1, r18
    1f54:	13 06       	cpc	r1, r19
    1f56:	14 06       	cpc	r1, r20
    1f58:	55 1f       	adc	r21, r21
    1f5a:	f2 cf       	rjmp	.-28     	; 0x1f40 <__fp_split3+0xe>
    1f5c:	46 95       	lsr	r20
    1f5e:	f1 df       	rcall	.-30     	; 0x1f42 <__fp_splitA>
    1f60:	08 c0       	rjmp	.+16     	; 0x1f72 <__fp_splitA+0x30>
    1f62:	16 16       	cp	r1, r22
    1f64:	17 06       	cpc	r1, r23
    1f66:	18 06       	cpc	r1, r24
    1f68:	99 1f       	adc	r25, r25
    1f6a:	f1 cf       	rjmp	.-30     	; 0x1f4e <__fp_splitA+0xc>
    1f6c:	86 95       	lsr	r24
    1f6e:	71 05       	cpc	r23, r1
    1f70:	61 05       	cpc	r22, r1
    1f72:	08 94       	sec
    1f74:	08 95       	ret

00001f76 <__fp_zero>:
    1f76:	e8 94       	clt

00001f78 <__fp_szero>:
    1f78:	bb 27       	eor	r27, r27
    1f7a:	66 27       	eor	r22, r22
    1f7c:	77 27       	eor	r23, r23
    1f7e:	cb 01       	movw	r24, r22
    1f80:	97 f9       	bld	r25, 7
    1f82:	08 95       	ret

00001f84 <inverse>:
    1f84:	9b 01       	movw	r18, r22
    1f86:	ac 01       	movw	r20, r24
    1f88:	60 e0       	ldi	r22, 0x00	; 0
    1f8a:	70 e0       	ldi	r23, 0x00	; 0
    1f8c:	80 e8       	ldi	r24, 0x80	; 128
    1f8e:	9f e3       	ldi	r25, 0x3F	; 63
    1f90:	5d ce       	rjmp	.-838    	; 0x1c4c <__divsf3>

00001f92 <__mulsf3>:
    1f92:	0b d0       	rcall	.+22     	; 0x1faa <__mulsf3x>
    1f94:	bd cf       	rjmp	.-134    	; 0x1f10 <__fp_round>
    1f96:	ae df       	rcall	.-164    	; 0x1ef4 <__fp_pscA>
    1f98:	28 f0       	brcs	.+10     	; 0x1fa4 <__mulsf3+0x12>
    1f9a:	b3 df       	rcall	.-154    	; 0x1f02 <__fp_pscB>
    1f9c:	18 f0       	brcs	.+6      	; 0x1fa4 <__mulsf3+0x12>
    1f9e:	95 23       	and	r25, r21
    1fa0:	09 f0       	breq	.+2      	; 0x1fa4 <__mulsf3+0x12>
    1fa2:	69 cf       	rjmp	.-302    	; 0x1e76 <__fp_inf>
    1fa4:	6e cf       	rjmp	.-292    	; 0x1e82 <__fp_nan>
    1fa6:	11 24       	eor	r1, r1
    1fa8:	e7 cf       	rjmp	.-50     	; 0x1f78 <__fp_szero>

00001faa <__mulsf3x>:
    1faa:	c3 df       	rcall	.-122    	; 0x1f32 <__fp_split3>
    1fac:	a0 f3       	brcs	.-24     	; 0x1f96 <__mulsf3+0x4>

00001fae <__mulsf3_pse>:
    1fae:	95 9f       	mul	r25, r21
    1fb0:	d1 f3       	breq	.-12     	; 0x1fa6 <__mulsf3+0x14>
    1fb2:	95 0f       	add	r25, r21
    1fb4:	50 e0       	ldi	r21, 0x00	; 0
    1fb6:	55 1f       	adc	r21, r21
    1fb8:	62 9f       	mul	r22, r18
    1fba:	f0 01       	movw	r30, r0
    1fbc:	72 9f       	mul	r23, r18
    1fbe:	bb 27       	eor	r27, r27
    1fc0:	f0 0d       	add	r31, r0
    1fc2:	b1 1d       	adc	r27, r1
    1fc4:	63 9f       	mul	r22, r19
    1fc6:	aa 27       	eor	r26, r26
    1fc8:	f0 0d       	add	r31, r0
    1fca:	b1 1d       	adc	r27, r1
    1fcc:	aa 1f       	adc	r26, r26
    1fce:	64 9f       	mul	r22, r20
    1fd0:	66 27       	eor	r22, r22
    1fd2:	b0 0d       	add	r27, r0
    1fd4:	a1 1d       	adc	r26, r1
    1fd6:	66 1f       	adc	r22, r22
    1fd8:	82 9f       	mul	r24, r18
    1fda:	22 27       	eor	r18, r18
    1fdc:	b0 0d       	add	r27, r0
    1fde:	a1 1d       	adc	r26, r1
    1fe0:	62 1f       	adc	r22, r18
    1fe2:	73 9f       	mul	r23, r19
    1fe4:	b0 0d       	add	r27, r0
    1fe6:	a1 1d       	adc	r26, r1
    1fe8:	62 1f       	adc	r22, r18
    1fea:	83 9f       	mul	r24, r19
    1fec:	a0 0d       	add	r26, r0
    1fee:	61 1d       	adc	r22, r1
    1ff0:	22 1f       	adc	r18, r18
    1ff2:	74 9f       	mul	r23, r20
    1ff4:	33 27       	eor	r19, r19
    1ff6:	a0 0d       	add	r26, r0
    1ff8:	61 1d       	adc	r22, r1
    1ffa:	23 1f       	adc	r18, r19
    1ffc:	84 9f       	mul	r24, r20
    1ffe:	60 0d       	add	r22, r0
    2000:	21 1d       	adc	r18, r1
    2002:	82 2f       	mov	r24, r18
    2004:	76 2f       	mov	r23, r22
    2006:	6a 2f       	mov	r22, r26
    2008:	11 24       	eor	r1, r1
    200a:	9f 57       	subi	r25, 0x7F	; 127
    200c:	50 40       	sbci	r21, 0x00	; 0
    200e:	8a f0       	brmi	.+34     	; 0x2032 <__mulsf3_pse+0x84>
    2010:	e1 f0       	breq	.+56     	; 0x204a <__mulsf3_pse+0x9c>
    2012:	88 23       	and	r24, r24
    2014:	4a f0       	brmi	.+18     	; 0x2028 <__mulsf3_pse+0x7a>
    2016:	ee 0f       	add	r30, r30
    2018:	ff 1f       	adc	r31, r31
    201a:	bb 1f       	adc	r27, r27
    201c:	66 1f       	adc	r22, r22
    201e:	77 1f       	adc	r23, r23
    2020:	88 1f       	adc	r24, r24
    2022:	91 50       	subi	r25, 0x01	; 1
    2024:	50 40       	sbci	r21, 0x00	; 0
    2026:	a9 f7       	brne	.-22     	; 0x2012 <__mulsf3_pse+0x64>
    2028:	9e 3f       	cpi	r25, 0xFE	; 254
    202a:	51 05       	cpc	r21, r1
    202c:	70 f0       	brcs	.+28     	; 0x204a <__mulsf3_pse+0x9c>
    202e:	23 cf       	rjmp	.-442    	; 0x1e76 <__fp_inf>
    2030:	a3 cf       	rjmp	.-186    	; 0x1f78 <__fp_szero>
    2032:	5f 3f       	cpi	r21, 0xFF	; 255
    2034:	ec f3       	brlt	.-6      	; 0x2030 <__mulsf3_pse+0x82>
    2036:	98 3e       	cpi	r25, 0xE8	; 232
    2038:	dc f3       	brlt	.-10     	; 0x2030 <__mulsf3_pse+0x82>
    203a:	86 95       	lsr	r24
    203c:	77 95       	ror	r23
    203e:	67 95       	ror	r22
    2040:	b7 95       	ror	r27
    2042:	f7 95       	ror	r31
    2044:	e7 95       	ror	r30
    2046:	9f 5f       	subi	r25, 0xFF	; 255
    2048:	c1 f7       	brne	.-16     	; 0x203a <__mulsf3_pse+0x8c>
    204a:	fe 2b       	or	r31, r30
    204c:	88 0f       	add	r24, r24
    204e:	91 1d       	adc	r25, r1
    2050:	96 95       	lsr	r25
    2052:	87 95       	ror	r24
    2054:	97 f9       	bld	r25, 7
    2056:	08 95       	ret
    2058:	11 f4       	brne	.+4      	; 0x205e <__mulsf3_pse+0xb0>
    205a:	0e f4       	brtc	.+2      	; 0x205e <__mulsf3_pse+0xb0>
    205c:	12 cf       	rjmp	.-476    	; 0x1e82 <__fp_nan>
    205e:	41 c0       	rjmp	.+130    	; 0x20e2 <__fp_mpack>

00002060 <sqrt>:
    2060:	70 df       	rcall	.-288    	; 0x1f42 <__fp_splitA>
    2062:	d0 f3       	brcs	.-12     	; 0x2058 <__mulsf3_pse+0xaa>
    2064:	99 23       	and	r25, r25
    2066:	d9 f3       	breq	.-10     	; 0x205e <__mulsf3_pse+0xb0>
    2068:	ce f3       	brts	.-14     	; 0x205c <__mulsf3_pse+0xae>
    206a:	9f 57       	subi	r25, 0x7F	; 127
    206c:	55 0b       	sbc	r21, r21
    206e:	87 ff       	sbrs	r24, 7
    2070:	46 d0       	rcall	.+140    	; 0x20fe <__fp_norm2>
    2072:	00 24       	eor	r0, r0
    2074:	a0 e6       	ldi	r26, 0x60	; 96
    2076:	40 ea       	ldi	r20, 0xA0	; 160
    2078:	90 01       	movw	r18, r0
    207a:	80 58       	subi	r24, 0x80	; 128
    207c:	56 95       	lsr	r21
    207e:	97 95       	ror	r25
    2080:	28 f4       	brcc	.+10     	; 0x208c <sqrt+0x2c>
    2082:	80 5c       	subi	r24, 0xC0	; 192
    2084:	66 0f       	add	r22, r22
    2086:	77 1f       	adc	r23, r23
    2088:	88 1f       	adc	r24, r24
    208a:	20 f0       	brcs	.+8      	; 0x2094 <sqrt+0x34>
    208c:	26 17       	cp	r18, r22
    208e:	37 07       	cpc	r19, r23
    2090:	48 07       	cpc	r20, r24
    2092:	30 f4       	brcc	.+12     	; 0x20a0 <sqrt+0x40>
    2094:	62 1b       	sub	r22, r18
    2096:	73 0b       	sbc	r23, r19
    2098:	84 0b       	sbc	r24, r20
    209a:	20 29       	or	r18, r0
    209c:	31 29       	or	r19, r1
    209e:	4a 2b       	or	r20, r26
    20a0:	a6 95       	lsr	r26
    20a2:	17 94       	ror	r1
    20a4:	07 94       	ror	r0
    20a6:	20 25       	eor	r18, r0
    20a8:	31 25       	eor	r19, r1
    20aa:	4a 27       	eor	r20, r26
    20ac:	58 f7       	brcc	.-42     	; 0x2084 <sqrt+0x24>
    20ae:	66 0f       	add	r22, r22
    20b0:	77 1f       	adc	r23, r23
    20b2:	88 1f       	adc	r24, r24
    20b4:	20 f0       	brcs	.+8      	; 0x20be <sqrt+0x5e>
    20b6:	26 17       	cp	r18, r22
    20b8:	37 07       	cpc	r19, r23
    20ba:	48 07       	cpc	r20, r24
    20bc:	30 f4       	brcc	.+12     	; 0x20ca <sqrt+0x6a>
    20be:	62 0b       	sbc	r22, r18
    20c0:	73 0b       	sbc	r23, r19
    20c2:	84 0b       	sbc	r24, r20
    20c4:	20 0d       	add	r18, r0
    20c6:	31 1d       	adc	r19, r1
    20c8:	41 1d       	adc	r20, r1
    20ca:	a0 95       	com	r26
    20cc:	81 f7       	brne	.-32     	; 0x20ae <sqrt+0x4e>
    20ce:	b9 01       	movw	r22, r18
    20d0:	84 2f       	mov	r24, r20
    20d2:	91 58       	subi	r25, 0x81	; 129
    20d4:	88 0f       	add	r24, r24
    20d6:	96 95       	lsr	r25
    20d8:	87 95       	ror	r24
    20da:	08 95       	ret

000020dc <square>:
    20dc:	9b 01       	movw	r18, r22
    20de:	ac 01       	movw	r20, r24
    20e0:	58 cf       	rjmp	.-336    	; 0x1f92 <__mulsf3>

000020e2 <__fp_mpack>:
    20e2:	9f 3f       	cpi	r25, 0xFF	; 255
    20e4:	31 f0       	breq	.+12     	; 0x20f2 <__fp_mpack_finite+0xc>

000020e6 <__fp_mpack_finite>:
    20e6:	91 50       	subi	r25, 0x01	; 1
    20e8:	20 f4       	brcc	.+8      	; 0x20f2 <__fp_mpack_finite+0xc>
    20ea:	87 95       	ror	r24
    20ec:	77 95       	ror	r23
    20ee:	67 95       	ror	r22
    20f0:	b7 95       	ror	r27
    20f2:	88 0f       	add	r24, r24
    20f4:	91 1d       	adc	r25, r1
    20f6:	96 95       	lsr	r25
    20f8:	87 95       	ror	r24
    20fa:	97 f9       	bld	r25, 7
    20fc:	08 95       	ret

000020fe <__fp_norm2>:
    20fe:	91 50       	subi	r25, 0x01	; 1
    2100:	50 40       	sbci	r21, 0x00	; 0
    2102:	66 0f       	add	r22, r22
    2104:	77 1f       	adc	r23, r23
    2106:	88 1f       	adc	r24, r24
    2108:	d2 f7       	brpl	.-12     	; 0x20fe <__fp_norm2>
    210a:	08 95       	ret

0000210c <dtostrf>:
    210c:	ef 92       	push	r14
    210e:	0f 93       	push	r16
    2110:	1f 93       	push	r17
    2112:	cf 93       	push	r28
    2114:	df 93       	push	r29
    2116:	e8 01       	movw	r28, r16
    2118:	47 ff       	sbrs	r20, 7
    211a:	02 c0       	rjmp	.+4      	; 0x2120 <dtostrf+0x14>
    211c:	34 e1       	ldi	r19, 0x14	; 20
    211e:	01 c0       	rjmp	.+2      	; 0x2122 <dtostrf+0x16>
    2120:	34 e0       	ldi	r19, 0x04	; 4
    2122:	e4 2f       	mov	r30, r20
    2124:	ff 27       	eor	r31, r31
    2126:	e7 fd       	sbrc	r30, 7
    2128:	f0 95       	com	r31
    212a:	f7 ff       	sbrs	r31, 7
    212c:	03 c0       	rjmp	.+6      	; 0x2134 <dtostrf+0x28>
    212e:	f1 95       	neg	r31
    2130:	e1 95       	neg	r30
    2132:	f1 09       	sbc	r31, r1
    2134:	e3 2e       	mov	r14, r19
    2136:	02 2f       	mov	r16, r18
    2138:	2e 2f       	mov	r18, r30
    213a:	ae 01       	movw	r20, r28
    213c:	0e 94 a7 10 	call	0x214e	; 0x214e <dtoa_prf>
    2140:	ce 01       	movw	r24, r28
    2142:	df 91       	pop	r29
    2144:	cf 91       	pop	r28
    2146:	1f 91       	pop	r17
    2148:	0f 91       	pop	r16
    214a:	ef 90       	pop	r14
    214c:	08 95       	ret

0000214e <dtoa_prf>:
    214e:	6f 92       	push	r6
    2150:	7f 92       	push	r7
    2152:	9f 92       	push	r9
    2154:	af 92       	push	r10
    2156:	bf 92       	push	r11
    2158:	cf 92       	push	r12
    215a:	df 92       	push	r13
    215c:	ef 92       	push	r14
    215e:	ff 92       	push	r15
    2160:	0f 93       	push	r16
    2162:	1f 93       	push	r17
    2164:	cf 93       	push	r28
    2166:	df 93       	push	r29
    2168:	cd b7       	in	r28, 0x3d	; 61
    216a:	de b7       	in	r29, 0x3e	; 62
    216c:	29 97       	sbiw	r28, 0x09	; 9
    216e:	0f b6       	in	r0, 0x3f	; 63
    2170:	f8 94       	cli
    2172:	de bf       	out	0x3e, r29	; 62
    2174:	0f be       	out	0x3f, r0	; 63
    2176:	cd bf       	out	0x3d, r28	; 61
    2178:	6a 01       	movw	r12, r20
    217a:	b2 2e       	mov	r11, r18
    217c:	10 2f       	mov	r17, r16
    217e:	0c 33       	cpi	r16, 0x3C	; 60
    2180:	20 f4       	brcc	.+8      	; 0x218a <dtoa_prf+0x3c>
    2182:	ff 24       	eor	r15, r15
    2184:	f3 94       	inc	r15
    2186:	f0 0e       	add	r15, r16
    2188:	02 c0       	rjmp	.+4      	; 0x218e <dtoa_prf+0x40>
    218a:	4c e3       	ldi	r20, 0x3C	; 60
    218c:	f4 2e       	mov	r15, r20
    218e:	0f 2d       	mov	r16, r15
    2190:	27 e0       	ldi	r18, 0x07	; 7
    2192:	ae 01       	movw	r20, r28
    2194:	4f 5f       	subi	r20, 0xFF	; 255
    2196:	5f 4f       	sbci	r21, 0xFF	; 255
    2198:	0e 94 25 12 	call	0x244a	; 0x244a <__ftoa_engine>
    219c:	79 81       	ldd	r23, Y+1	; 0x01
    219e:	27 2f       	mov	r18, r23
    21a0:	29 70       	andi	r18, 0x09	; 9
    21a2:	21 30       	cpi	r18, 0x01	; 1
    21a4:	31 f0       	breq	.+12     	; 0x21b2 <dtoa_prf+0x64>
    21a6:	e1 fc       	sbrc	r14, 1
    21a8:	06 c0       	rjmp	.+12     	; 0x21b6 <dtoa_prf+0x68>
    21aa:	e0 fc       	sbrc	r14, 0
    21ac:	06 c0       	rjmp	.+12     	; 0x21ba <dtoa_prf+0x6c>
    21ae:	60 e0       	ldi	r22, 0x00	; 0
    21b0:	05 c0       	rjmp	.+10     	; 0x21bc <dtoa_prf+0x6e>
    21b2:	6d e2       	ldi	r22, 0x2D	; 45
    21b4:	03 c0       	rjmp	.+6      	; 0x21bc <dtoa_prf+0x6e>
    21b6:	6b e2       	ldi	r22, 0x2B	; 43
    21b8:	01 c0       	rjmp	.+2      	; 0x21bc <dtoa_prf+0x6e>
    21ba:	60 e2       	ldi	r22, 0x20	; 32
    21bc:	ae 2d       	mov	r26, r14
    21be:	a0 71       	andi	r26, 0x10	; 16
    21c0:	73 ff       	sbrs	r23, 3
    21c2:	36 c0       	rjmp	.+108    	; 0x2230 <dtoa_prf+0xe2>
    21c4:	66 23       	and	r22, r22
    21c6:	11 f0       	breq	.+4      	; 0x21cc <dtoa_prf+0x7e>
    21c8:	84 e0       	ldi	r24, 0x04	; 4
    21ca:	01 c0       	rjmp	.+2      	; 0x21ce <dtoa_prf+0x80>
    21cc:	83 e0       	ldi	r24, 0x03	; 3
    21ce:	8b 15       	cp	r24, r11
    21d0:	10 f4       	brcc	.+4      	; 0x21d6 <dtoa_prf+0x88>
    21d2:	b8 1a       	sub	r11, r24
    21d4:	01 c0       	rjmp	.+2      	; 0x21d8 <dtoa_prf+0x8a>
    21d6:	b1 2c       	mov	r11, r1
    21d8:	a1 11       	cpse	r26, r1
    21da:	0b c0       	rjmp	.+22     	; 0x21f2 <dtoa_prf+0xa4>
    21dc:	f6 01       	movw	r30, r12
    21de:	8b 2d       	mov	r24, r11
    21e0:	90 e2       	ldi	r25, 0x20	; 32
    21e2:	88 23       	and	r24, r24
    21e4:	19 f0       	breq	.+6      	; 0x21ec <dtoa_prf+0x9e>
    21e6:	91 93       	st	Z+, r25
    21e8:	81 50       	subi	r24, 0x01	; 1
    21ea:	fb cf       	rjmp	.-10     	; 0x21e2 <dtoa_prf+0x94>
    21ec:	cb 0c       	add	r12, r11
    21ee:	d1 1c       	adc	r13, r1
    21f0:	b1 2c       	mov	r11, r1
    21f2:	66 23       	and	r22, r22
    21f4:	31 f0       	breq	.+12     	; 0x2202 <dtoa_prf+0xb4>
    21f6:	f6 01       	movw	r30, r12
    21f8:	60 83       	st	Z, r22
    21fa:	96 01       	movw	r18, r12
    21fc:	2f 5f       	subi	r18, 0xFF	; 255
    21fe:	3f 4f       	sbci	r19, 0xFF	; 255
    2200:	69 01       	movw	r12, r18
    2202:	c6 01       	movw	r24, r12
    2204:	03 96       	adiw	r24, 0x03	; 3
    2206:	e2 fe       	sbrs	r14, 2
    2208:	05 c0       	rjmp	.+10     	; 0x2214 <dtoa_prf+0xc6>
    220a:	2e e4       	ldi	r18, 0x4E	; 78
    220c:	f6 01       	movw	r30, r12
    220e:	20 83       	st	Z, r18
    2210:	31 e4       	ldi	r19, 0x41	; 65
    2212:	04 c0       	rjmp	.+8      	; 0x221c <dtoa_prf+0xce>
    2214:	2e e6       	ldi	r18, 0x6E	; 110
    2216:	f6 01       	movw	r30, r12
    2218:	20 83       	st	Z, r18
    221a:	31 e6       	ldi	r19, 0x61	; 97
    221c:	31 83       	std	Z+1, r19	; 0x01
    221e:	22 83       	std	Z+2, r18	; 0x02
    2220:	fc 01       	movw	r30, r24
    2222:	2b 2d       	mov	r18, r11
    2224:	30 e2       	ldi	r19, 0x20	; 32
    2226:	22 23       	and	r18, r18
    2228:	f1 f1       	breq	.+124    	; 0x22a6 <dtoa_prf+0x158>
    222a:	31 93       	st	Z+, r19
    222c:	21 50       	subi	r18, 0x01	; 1
    222e:	fb cf       	rjmp	.-10     	; 0x2226 <dtoa_prf+0xd8>
    2230:	72 ff       	sbrs	r23, 2
    2232:	40 c0       	rjmp	.+128    	; 0x22b4 <dtoa_prf+0x166>
    2234:	66 23       	and	r22, r22
    2236:	11 f0       	breq	.+4      	; 0x223c <dtoa_prf+0xee>
    2238:	84 e0       	ldi	r24, 0x04	; 4
    223a:	01 c0       	rjmp	.+2      	; 0x223e <dtoa_prf+0xf0>
    223c:	83 e0       	ldi	r24, 0x03	; 3
    223e:	8b 15       	cp	r24, r11
    2240:	10 f4       	brcc	.+4      	; 0x2246 <dtoa_prf+0xf8>
    2242:	b8 1a       	sub	r11, r24
    2244:	01 c0       	rjmp	.+2      	; 0x2248 <dtoa_prf+0xfa>
    2246:	b1 2c       	mov	r11, r1
    2248:	a1 11       	cpse	r26, r1
    224a:	0b c0       	rjmp	.+22     	; 0x2262 <dtoa_prf+0x114>
    224c:	f6 01       	movw	r30, r12
    224e:	8b 2d       	mov	r24, r11
    2250:	90 e2       	ldi	r25, 0x20	; 32
    2252:	88 23       	and	r24, r24
    2254:	19 f0       	breq	.+6      	; 0x225c <dtoa_prf+0x10e>
    2256:	91 93       	st	Z+, r25
    2258:	81 50       	subi	r24, 0x01	; 1
    225a:	fb cf       	rjmp	.-10     	; 0x2252 <dtoa_prf+0x104>
    225c:	cb 0c       	add	r12, r11
    225e:	d1 1c       	adc	r13, r1
    2260:	b1 2c       	mov	r11, r1
    2262:	66 23       	and	r22, r22
    2264:	31 f0       	breq	.+12     	; 0x2272 <dtoa_prf+0x124>
    2266:	f6 01       	movw	r30, r12
    2268:	60 83       	st	Z, r22
    226a:	96 01       	movw	r18, r12
    226c:	2f 5f       	subi	r18, 0xFF	; 255
    226e:	3f 4f       	sbci	r19, 0xFF	; 255
    2270:	69 01       	movw	r12, r18
    2272:	c6 01       	movw	r24, r12
    2274:	03 96       	adiw	r24, 0x03	; 3
    2276:	e2 fe       	sbrs	r14, 2
    2278:	07 c0       	rjmp	.+14     	; 0x2288 <dtoa_prf+0x13a>
    227a:	29 e4       	ldi	r18, 0x49	; 73
    227c:	f6 01       	movw	r30, r12
    227e:	20 83       	st	Z, r18
    2280:	2e e4       	ldi	r18, 0x4E	; 78
    2282:	21 83       	std	Z+1, r18	; 0x01
    2284:	26 e4       	ldi	r18, 0x46	; 70
    2286:	06 c0       	rjmp	.+12     	; 0x2294 <dtoa_prf+0x146>
    2288:	29 e6       	ldi	r18, 0x69	; 105
    228a:	f6 01       	movw	r30, r12
    228c:	20 83       	st	Z, r18
    228e:	2e e6       	ldi	r18, 0x6E	; 110
    2290:	21 83       	std	Z+1, r18	; 0x01
    2292:	26 e6       	ldi	r18, 0x66	; 102
    2294:	22 83       	std	Z+2, r18	; 0x02
    2296:	fc 01       	movw	r30, r24
    2298:	2b 2d       	mov	r18, r11
    229a:	30 e2       	ldi	r19, 0x20	; 32
    229c:	22 23       	and	r18, r18
    229e:	19 f0       	breq	.+6      	; 0x22a6 <dtoa_prf+0x158>
    22a0:	31 93       	st	Z+, r19
    22a2:	21 50       	subi	r18, 0x01	; 1
    22a4:	fb cf       	rjmp	.-10     	; 0x229c <dtoa_prf+0x14e>
    22a6:	fc 01       	movw	r30, r24
    22a8:	eb 0d       	add	r30, r11
    22aa:	f1 1d       	adc	r31, r1
    22ac:	10 82       	st	Z, r1
    22ae:	8e ef       	ldi	r24, 0xFE	; 254
    22b0:	9f ef       	ldi	r25, 0xFF	; 255
    22b2:	b7 c0       	rjmp	.+366    	; 0x2422 <dtoa_prf+0x2d4>
    22b4:	b1 e0       	ldi	r27, 0x01	; 1
    22b6:	61 11       	cpse	r22, r1
    22b8:	01 c0       	rjmp	.+2      	; 0x22bc <dtoa_prf+0x16e>
    22ba:	b0 e0       	ldi	r27, 0x00	; 0
    22bc:	4b 2f       	mov	r20, r27
    22be:	50 e0       	ldi	r21, 0x00	; 0
    22c0:	18 16       	cp	r1, r24
    22c2:	19 06       	cpc	r1, r25
    22c4:	24 f4       	brge	.+8      	; 0x22ce <dtoa_prf+0x180>
    22c6:	9c 01       	movw	r18, r24
    22c8:	2f 5f       	subi	r18, 0xFF	; 255
    22ca:	3f 4f       	sbci	r19, 0xFF	; 255
    22cc:	02 c0       	rjmp	.+4      	; 0x22d2 <dtoa_prf+0x184>
    22ce:	21 e0       	ldi	r18, 0x01	; 1
    22d0:	30 e0       	ldi	r19, 0x00	; 0
    22d2:	24 0f       	add	r18, r20
    22d4:	35 1f       	adc	r19, r21
    22d6:	11 23       	and	r17, r17
    22d8:	29 f0       	breq	.+10     	; 0x22e4 <dtoa_prf+0x196>
    22da:	41 2f       	mov	r20, r17
    22dc:	50 e0       	ldi	r21, 0x00	; 0
    22de:	4f 5f       	subi	r20, 0xFF	; 255
    22e0:	5f 4f       	sbci	r21, 0xFF	; 255
    22e2:	02 c0       	rjmp	.+4      	; 0x22e8 <dtoa_prf+0x19a>
    22e4:	40 e0       	ldi	r20, 0x00	; 0
    22e6:	50 e0       	ldi	r21, 0x00	; 0
    22e8:	42 0f       	add	r20, r18
    22ea:	53 1f       	adc	r21, r19
    22ec:	2b 2d       	mov	r18, r11
    22ee:	30 e0       	ldi	r19, 0x00	; 0
    22f0:	42 17       	cp	r20, r18
    22f2:	53 07       	cpc	r21, r19
    22f4:	14 f4       	brge	.+4      	; 0x22fa <dtoa_prf+0x1ac>
    22f6:	b4 1a       	sub	r11, r20
    22f8:	01 c0       	rjmp	.+2      	; 0x22fc <dtoa_prf+0x1ae>
    22fa:	b1 2c       	mov	r11, r1
    22fc:	2e 2d       	mov	r18, r14
    22fe:	28 71       	andi	r18, 0x18	; 24
    2300:	59 f4       	brne	.+22     	; 0x2318 <dtoa_prf+0x1ca>
    2302:	f6 01       	movw	r30, r12
    2304:	2b 2d       	mov	r18, r11
    2306:	30 e2       	ldi	r19, 0x20	; 32
    2308:	22 23       	and	r18, r18
    230a:	19 f0       	breq	.+6      	; 0x2312 <dtoa_prf+0x1c4>
    230c:	31 93       	st	Z+, r19
    230e:	21 50       	subi	r18, 0x01	; 1
    2310:	fb cf       	rjmp	.-10     	; 0x2308 <dtoa_prf+0x1ba>
    2312:	cb 0c       	add	r12, r11
    2314:	d1 1c       	adc	r13, r1
    2316:	b1 2c       	mov	r11, r1
    2318:	bb 23       	and	r27, r27
    231a:	31 f0       	breq	.+12     	; 0x2328 <dtoa_prf+0x1da>
    231c:	f6 01       	movw	r30, r12
    231e:	60 83       	st	Z, r22
    2320:	96 01       	movw	r18, r12
    2322:	2f 5f       	subi	r18, 0xFF	; 255
    2324:	3f 4f       	sbci	r19, 0xFF	; 255
    2326:	69 01       	movw	r12, r18
    2328:	a1 11       	cpse	r26, r1
    232a:	0b c0       	rjmp	.+22     	; 0x2342 <dtoa_prf+0x1f4>
    232c:	f6 01       	movw	r30, r12
    232e:	2b 2d       	mov	r18, r11
    2330:	30 e3       	ldi	r19, 0x30	; 48
    2332:	22 23       	and	r18, r18
    2334:	19 f0       	breq	.+6      	; 0x233c <dtoa_prf+0x1ee>
    2336:	31 93       	st	Z+, r19
    2338:	21 50       	subi	r18, 0x01	; 1
    233a:	fb cf       	rjmp	.-10     	; 0x2332 <dtoa_prf+0x1e4>
    233c:	cb 0c       	add	r12, r11
    233e:	d1 1c       	adc	r13, r1
    2340:	b1 2c       	mov	r11, r1
    2342:	f8 0e       	add	r15, r24
    2344:	0a 81       	ldd	r16, Y+2	; 0x02
    2346:	37 2f       	mov	r19, r23
    2348:	30 71       	andi	r19, 0x10	; 16
    234a:	a3 2e       	mov	r10, r19
    234c:	74 ff       	sbrs	r23, 4
    234e:	03 c0       	rjmp	.+6      	; 0x2356 <dtoa_prf+0x208>
    2350:	01 33       	cpi	r16, 0x31	; 49
    2352:	09 f4       	brne	.+2      	; 0x2356 <dtoa_prf+0x208>
    2354:	fa 94       	dec	r15
    2356:	1f 14       	cp	r1, r15
    2358:	2c f4       	brge	.+10     	; 0x2364 <dtoa_prf+0x216>
    235a:	2f 2d       	mov	r18, r15
    235c:	29 30       	cpi	r18, 0x09	; 9
    235e:	18 f0       	brcs	.+6      	; 0x2366 <dtoa_prf+0x218>
    2360:	28 e0       	ldi	r18, 0x08	; 8
    2362:	01 c0       	rjmp	.+2      	; 0x2366 <dtoa_prf+0x218>
    2364:	21 e0       	ldi	r18, 0x01	; 1
    2366:	68 2f       	mov	r22, r24
    2368:	39 2f       	mov	r19, r25
    236a:	97 ff       	sbrs	r25, 7
    236c:	02 c0       	rjmp	.+4      	; 0x2372 <dtoa_prf+0x224>
    236e:	60 e0       	ldi	r22, 0x00	; 0
    2370:	30 e0       	ldi	r19, 0x00	; 0
    2372:	46 2f       	mov	r20, r22
    2374:	53 2f       	mov	r21, r19
    2376:	61 2c       	mov	r6, r1
    2378:	71 2c       	mov	r7, r1
    237a:	3e e2       	ldi	r19, 0x2E	; 46
    237c:	93 2e       	mov	r9, r19
    237e:	bc 01       	movw	r22, r24
    2380:	62 1b       	sub	r22, r18
    2382:	71 09       	sbc	r23, r1
    2384:	9b 01       	movw	r18, r22
    2386:	dc 01       	movw	r26, r24
    2388:	a4 1b       	sub	r26, r20
    238a:	b5 0b       	sbc	r27, r21
    238c:	e1 e0       	ldi	r30, 0x01	; 1
    238e:	f0 e0       	ldi	r31, 0x00	; 0
    2390:	ec 0f       	add	r30, r28
    2392:	fd 1f       	adc	r31, r29
    2394:	ae 0f       	add	r26, r30
    2396:	bf 1f       	adc	r27, r31
    2398:	e1 2e       	mov	r14, r17
    239a:	f1 2c       	mov	r15, r1
    239c:	f1 94       	neg	r15
    239e:	e1 94       	neg	r14
    23a0:	f1 08       	sbc	r15, r1
    23a2:	4f 3f       	cpi	r20, 0xFF	; 255
    23a4:	ff ef       	ldi	r31, 0xFF	; 255
    23a6:	5f 07       	cpc	r21, r31
    23a8:	31 f4       	brne	.+12     	; 0x23b6 <dtoa_prf+0x268>
    23aa:	f6 01       	movw	r30, r12
    23ac:	90 82       	st	Z, r9
    23ae:	b6 01       	movw	r22, r12
    23b0:	6f 5f       	subi	r22, 0xFF	; 255
    23b2:	7f 4f       	sbci	r23, 0xFF	; 255
    23b4:	6b 01       	movw	r12, r22
    23b6:	84 17       	cp	r24, r20
    23b8:	95 07       	cpc	r25, r21
    23ba:	4c f0       	brlt	.+18     	; 0x23ce <dtoa_prf+0x280>
    23bc:	24 17       	cp	r18, r20
    23be:	35 07       	cpc	r19, r21
    23c0:	34 f4       	brge	.+12     	; 0x23ce <dtoa_prf+0x280>
    23c2:	bd 01       	movw	r22, r26
    23c4:	66 0d       	add	r22, r6
    23c6:	77 1d       	adc	r23, r7
    23c8:	fb 01       	movw	r30, r22
    23ca:	11 81       	ldd	r17, Z+1	; 0x01
    23cc:	01 c0       	rjmp	.+2      	; 0x23d0 <dtoa_prf+0x282>
    23ce:	10 e3       	ldi	r17, 0x30	; 48
    23d0:	41 50       	subi	r20, 0x01	; 1
    23d2:	51 09       	sbc	r21, r1
    23d4:	ff ef       	ldi	r31, 0xFF	; 255
    23d6:	6f 1a       	sub	r6, r31
    23d8:	7f 0a       	sbc	r7, r31
    23da:	b6 01       	movw	r22, r12
    23dc:	6f 5f       	subi	r22, 0xFF	; 255
    23de:	7f 4f       	sbci	r23, 0xFF	; 255
    23e0:	4e 15       	cp	r20, r14
    23e2:	5f 05       	cpc	r21, r15
    23e4:	24 f0       	brlt	.+8      	; 0x23ee <dtoa_prf+0x2a0>
    23e6:	f6 01       	movw	r30, r12
    23e8:	10 83       	st	Z, r17
    23ea:	6b 01       	movw	r12, r22
    23ec:	da cf       	rjmp	.-76     	; 0x23a2 <dtoa_prf+0x254>
    23ee:	48 17       	cp	r20, r24
    23f0:	59 07       	cpc	r21, r25
    23f2:	39 f4       	brne	.+14     	; 0x2402 <dtoa_prf+0x2b4>
    23f4:	06 33       	cpi	r16, 0x36	; 54
    23f6:	20 f4       	brcc	.+8      	; 0x2400 <dtoa_prf+0x2b2>
    23f8:	05 33       	cpi	r16, 0x35	; 53
    23fa:	19 f4       	brne	.+6      	; 0x2402 <dtoa_prf+0x2b4>
    23fc:	a1 10       	cpse	r10, r1
    23fe:	01 c0       	rjmp	.+2      	; 0x2402 <dtoa_prf+0x2b4>
    2400:	11 e3       	ldi	r17, 0x31	; 49
    2402:	f6 01       	movw	r30, r12
    2404:	10 83       	st	Z, r17
    2406:	fb 01       	movw	r30, r22
    2408:	8b 2d       	mov	r24, r11
    240a:	90 e2       	ldi	r25, 0x20	; 32
    240c:	88 23       	and	r24, r24
    240e:	19 f0       	breq	.+6      	; 0x2416 <dtoa_prf+0x2c8>
    2410:	91 93       	st	Z+, r25
    2412:	81 50       	subi	r24, 0x01	; 1
    2414:	fb cf       	rjmp	.-10     	; 0x240c <dtoa_prf+0x2be>
    2416:	fb 01       	movw	r30, r22
    2418:	eb 0d       	add	r30, r11
    241a:	f1 1d       	adc	r31, r1
    241c:	10 82       	st	Z, r1
    241e:	80 e0       	ldi	r24, 0x00	; 0
    2420:	90 e0       	ldi	r25, 0x00	; 0
    2422:	29 96       	adiw	r28, 0x09	; 9
    2424:	0f b6       	in	r0, 0x3f	; 63
    2426:	f8 94       	cli
    2428:	de bf       	out	0x3e, r29	; 62
    242a:	0f be       	out	0x3f, r0	; 63
    242c:	cd bf       	out	0x3d, r28	; 61
    242e:	df 91       	pop	r29
    2430:	cf 91       	pop	r28
    2432:	1f 91       	pop	r17
    2434:	0f 91       	pop	r16
    2436:	ff 90       	pop	r15
    2438:	ef 90       	pop	r14
    243a:	df 90       	pop	r13
    243c:	cf 90       	pop	r12
    243e:	bf 90       	pop	r11
    2440:	af 90       	pop	r10
    2442:	9f 90       	pop	r9
    2444:	7f 90       	pop	r7
    2446:	6f 90       	pop	r6
    2448:	08 95       	ret

0000244a <__ftoa_engine>:
    244a:	28 30       	cpi	r18, 0x08	; 8
    244c:	08 f0       	brcs	.+2      	; 0x2450 <__ftoa_engine+0x6>
    244e:	27 e0       	ldi	r18, 0x07	; 7
    2450:	33 27       	eor	r19, r19
    2452:	da 01       	movw	r26, r20
    2454:	99 0f       	add	r25, r25
    2456:	31 1d       	adc	r19, r1
    2458:	87 fd       	sbrc	r24, 7
    245a:	91 60       	ori	r25, 0x01	; 1
    245c:	00 96       	adiw	r24, 0x00	; 0
    245e:	61 05       	cpc	r22, r1
    2460:	71 05       	cpc	r23, r1
    2462:	39 f4       	brne	.+14     	; 0x2472 <__ftoa_engine+0x28>
    2464:	32 60       	ori	r19, 0x02	; 2
    2466:	2e 5f       	subi	r18, 0xFE	; 254
    2468:	3d 93       	st	X+, r19
    246a:	30 e3       	ldi	r19, 0x30	; 48
    246c:	2a 95       	dec	r18
    246e:	e1 f7       	brne	.-8      	; 0x2468 <__ftoa_engine+0x1e>
    2470:	08 95       	ret
    2472:	9f 3f       	cpi	r25, 0xFF	; 255
    2474:	30 f0       	brcs	.+12     	; 0x2482 <__ftoa_engine+0x38>
    2476:	80 38       	cpi	r24, 0x80	; 128
    2478:	71 05       	cpc	r23, r1
    247a:	61 05       	cpc	r22, r1
    247c:	09 f0       	breq	.+2      	; 0x2480 <__ftoa_engine+0x36>
    247e:	3c 5f       	subi	r19, 0xFC	; 252
    2480:	3c 5f       	subi	r19, 0xFC	; 252
    2482:	3d 93       	st	X+, r19
    2484:	91 30       	cpi	r25, 0x01	; 1
    2486:	08 f0       	brcs	.+2      	; 0x248a <__ftoa_engine+0x40>
    2488:	80 68       	ori	r24, 0x80	; 128
    248a:	91 1d       	adc	r25, r1
    248c:	df 93       	push	r29
    248e:	cf 93       	push	r28
    2490:	1f 93       	push	r17
    2492:	0f 93       	push	r16
    2494:	ff 92       	push	r15
    2496:	ef 92       	push	r14
    2498:	19 2f       	mov	r17, r25
    249a:	98 7f       	andi	r25, 0xF8	; 248
    249c:	96 95       	lsr	r25
    249e:	e9 2f       	mov	r30, r25
    24a0:	96 95       	lsr	r25
    24a2:	96 95       	lsr	r25
    24a4:	e9 0f       	add	r30, r25
    24a6:	ff 27       	eor	r31, r31
    24a8:	e4 5d       	subi	r30, 0xD4	; 212
    24aa:	fe 4f       	sbci	r31, 0xFE	; 254
    24ac:	99 27       	eor	r25, r25
    24ae:	33 27       	eor	r19, r19
    24b0:	ee 24       	eor	r14, r14
    24b2:	ff 24       	eor	r15, r15
    24b4:	a7 01       	movw	r20, r14
    24b6:	e7 01       	movw	r28, r14
    24b8:	05 90       	lpm	r0, Z+
    24ba:	08 94       	sec
    24bc:	07 94       	ror	r0
    24be:	28 f4       	brcc	.+10     	; 0x24ca <__ftoa_engine+0x80>
    24c0:	36 0f       	add	r19, r22
    24c2:	e7 1e       	adc	r14, r23
    24c4:	f8 1e       	adc	r15, r24
    24c6:	49 1f       	adc	r20, r25
    24c8:	51 1d       	adc	r21, r1
    24ca:	66 0f       	add	r22, r22
    24cc:	77 1f       	adc	r23, r23
    24ce:	88 1f       	adc	r24, r24
    24d0:	99 1f       	adc	r25, r25
    24d2:	06 94       	lsr	r0
    24d4:	a1 f7       	brne	.-24     	; 0x24be <__ftoa_engine+0x74>
    24d6:	05 90       	lpm	r0, Z+
    24d8:	07 94       	ror	r0
    24da:	28 f4       	brcc	.+10     	; 0x24e6 <__ftoa_engine+0x9c>
    24dc:	e7 0e       	add	r14, r23
    24de:	f8 1e       	adc	r15, r24
    24e0:	49 1f       	adc	r20, r25
    24e2:	56 1f       	adc	r21, r22
    24e4:	c1 1d       	adc	r28, r1
    24e6:	77 0f       	add	r23, r23
    24e8:	88 1f       	adc	r24, r24
    24ea:	99 1f       	adc	r25, r25
    24ec:	66 1f       	adc	r22, r22
    24ee:	06 94       	lsr	r0
    24f0:	a1 f7       	brne	.-24     	; 0x24da <__ftoa_engine+0x90>
    24f2:	05 90       	lpm	r0, Z+
    24f4:	07 94       	ror	r0
    24f6:	28 f4       	brcc	.+10     	; 0x2502 <__ftoa_engine+0xb8>
    24f8:	f8 0e       	add	r15, r24
    24fa:	49 1f       	adc	r20, r25
    24fc:	56 1f       	adc	r21, r22
    24fe:	c7 1f       	adc	r28, r23
    2500:	d1 1d       	adc	r29, r1
    2502:	88 0f       	add	r24, r24
    2504:	99 1f       	adc	r25, r25
    2506:	66 1f       	adc	r22, r22
    2508:	77 1f       	adc	r23, r23
    250a:	06 94       	lsr	r0
    250c:	a1 f7       	brne	.-24     	; 0x24f6 <__ftoa_engine+0xac>
    250e:	05 90       	lpm	r0, Z+
    2510:	07 94       	ror	r0
    2512:	20 f4       	brcc	.+8      	; 0x251c <__ftoa_engine+0xd2>
    2514:	49 0f       	add	r20, r25
    2516:	56 1f       	adc	r21, r22
    2518:	c7 1f       	adc	r28, r23
    251a:	d8 1f       	adc	r29, r24
    251c:	99 0f       	add	r25, r25
    251e:	66 1f       	adc	r22, r22
    2520:	77 1f       	adc	r23, r23
    2522:	88 1f       	adc	r24, r24
    2524:	06 94       	lsr	r0
    2526:	a9 f7       	brne	.-22     	; 0x2512 <__ftoa_engine+0xc8>
    2528:	84 91       	lpm	r24, Z
    252a:	10 95       	com	r17
    252c:	17 70       	andi	r17, 0x07	; 7
    252e:	41 f0       	breq	.+16     	; 0x2540 <__ftoa_engine+0xf6>
    2530:	d6 95       	lsr	r29
    2532:	c7 95       	ror	r28
    2534:	57 95       	ror	r21
    2536:	47 95       	ror	r20
    2538:	f7 94       	ror	r15
    253a:	e7 94       	ror	r14
    253c:	1a 95       	dec	r17
    253e:	c1 f7       	brne	.-16     	; 0x2530 <__ftoa_engine+0xe6>
    2540:	e2 ed       	ldi	r30, 0xD2	; 210
    2542:	f0 e0       	ldi	r31, 0x00	; 0
    2544:	68 94       	set
    2546:	15 90       	lpm	r1, Z+
    2548:	15 91       	lpm	r17, Z+
    254a:	35 91       	lpm	r19, Z+
    254c:	65 91       	lpm	r22, Z+
    254e:	95 91       	lpm	r25, Z+
    2550:	05 90       	lpm	r0, Z+
    2552:	7f e2       	ldi	r23, 0x2F	; 47
    2554:	73 95       	inc	r23
    2556:	e1 18       	sub	r14, r1
    2558:	f1 0a       	sbc	r15, r17
    255a:	43 0b       	sbc	r20, r19
    255c:	56 0b       	sbc	r21, r22
    255e:	c9 0b       	sbc	r28, r25
    2560:	d0 09       	sbc	r29, r0
    2562:	c0 f7       	brcc	.-16     	; 0x2554 <__ftoa_engine+0x10a>
    2564:	e1 0c       	add	r14, r1
    2566:	f1 1e       	adc	r15, r17
    2568:	43 1f       	adc	r20, r19
    256a:	56 1f       	adc	r21, r22
    256c:	c9 1f       	adc	r28, r25
    256e:	d0 1d       	adc	r29, r0
    2570:	7e f4       	brtc	.+30     	; 0x2590 <__ftoa_engine+0x146>
    2572:	70 33       	cpi	r23, 0x30	; 48
    2574:	11 f4       	brne	.+4      	; 0x257a <__ftoa_engine+0x130>
    2576:	8a 95       	dec	r24
    2578:	e6 cf       	rjmp	.-52     	; 0x2546 <__ftoa_engine+0xfc>
    257a:	e8 94       	clt
    257c:	01 50       	subi	r16, 0x01	; 1
    257e:	30 f0       	brcs	.+12     	; 0x258c <__ftoa_engine+0x142>
    2580:	08 0f       	add	r16, r24
    2582:	0a f4       	brpl	.+2      	; 0x2586 <__ftoa_engine+0x13c>
    2584:	00 27       	eor	r16, r16
    2586:	02 17       	cp	r16, r18
    2588:	08 f4       	brcc	.+2      	; 0x258c <__ftoa_engine+0x142>
    258a:	20 2f       	mov	r18, r16
    258c:	23 95       	inc	r18
    258e:	02 2f       	mov	r16, r18
    2590:	7a 33       	cpi	r23, 0x3A	; 58
    2592:	28 f0       	brcs	.+10     	; 0x259e <__ftoa_engine+0x154>
    2594:	79 e3       	ldi	r23, 0x39	; 57
    2596:	7d 93       	st	X+, r23
    2598:	2a 95       	dec	r18
    259a:	e9 f7       	brne	.-6      	; 0x2596 <__ftoa_engine+0x14c>
    259c:	10 c0       	rjmp	.+32     	; 0x25be <__ftoa_engine+0x174>
    259e:	7d 93       	st	X+, r23
    25a0:	2a 95       	dec	r18
    25a2:	89 f6       	brne	.-94     	; 0x2546 <__ftoa_engine+0xfc>
    25a4:	06 94       	lsr	r0
    25a6:	97 95       	ror	r25
    25a8:	67 95       	ror	r22
    25aa:	37 95       	ror	r19
    25ac:	17 95       	ror	r17
    25ae:	17 94       	ror	r1
    25b0:	e1 18       	sub	r14, r1
    25b2:	f1 0a       	sbc	r15, r17
    25b4:	43 0b       	sbc	r20, r19
    25b6:	56 0b       	sbc	r21, r22
    25b8:	c9 0b       	sbc	r28, r25
    25ba:	d0 09       	sbc	r29, r0
    25bc:	98 f0       	brcs	.+38     	; 0x25e4 <__ftoa_engine+0x19a>
    25be:	23 95       	inc	r18
    25c0:	7e 91       	ld	r23, -X
    25c2:	73 95       	inc	r23
    25c4:	7a 33       	cpi	r23, 0x3A	; 58
    25c6:	08 f0       	brcs	.+2      	; 0x25ca <__ftoa_engine+0x180>
    25c8:	70 e3       	ldi	r23, 0x30	; 48
    25ca:	7c 93       	st	X, r23
    25cc:	20 13       	cpse	r18, r16
    25ce:	b8 f7       	brcc	.-18     	; 0x25be <__ftoa_engine+0x174>
    25d0:	7e 91       	ld	r23, -X
    25d2:	70 61       	ori	r23, 0x10	; 16
    25d4:	7d 93       	st	X+, r23
    25d6:	30 f0       	brcs	.+12     	; 0x25e4 <__ftoa_engine+0x19a>
    25d8:	83 95       	inc	r24
    25da:	71 e3       	ldi	r23, 0x31	; 49
    25dc:	7d 93       	st	X+, r23
    25de:	70 e3       	ldi	r23, 0x30	; 48
    25e0:	2a 95       	dec	r18
    25e2:	e1 f7       	brne	.-8      	; 0x25dc <__ftoa_engine+0x192>
    25e4:	11 24       	eor	r1, r1
    25e6:	ef 90       	pop	r14
    25e8:	ff 90       	pop	r15
    25ea:	0f 91       	pop	r16
    25ec:	1f 91       	pop	r17
    25ee:	cf 91       	pop	r28
    25f0:	df 91       	pop	r29
    25f2:	99 27       	eor	r25, r25
    25f4:	87 fd       	sbrc	r24, 7
    25f6:	90 95       	com	r25
    25f8:	08 95       	ret

000025fa <_exit>:
    25fa:	f8 94       	cli

000025fc <__stop_program>:
    25fc:	ff cf       	rjmp	.-2      	; 0x25fc <__stop_program>
